

Microchip MPLAB XC8 Assembler V3.00 build 20241204225717 
                                                                                               Tue May 06 22:50:46 2025

Microchip MPLAB XC8 C Compiler v3.00 (Free license) build 20241204225717 Og1 
     1                           	processor	16F887
     2                           	pagewidth 120
     3                           	opt	flic
     4                           	psect	idataBANK0,global,class=CODE,space=0,delta=2,noexec
     5                           	psect	cinit,global,class=CODE,space=0,merge=1,delta=2
     6                           	psect	bssCOMMON,global,class=COMMON,space=1,delta=1,noexec
     7                           	psect	dataBANK0,global,class=BANK0,space=1,delta=1,noexec
     8                           	psect	inittext,global,class=CODE,space=0,delta=2
     9                           	psect	cstackCOMMON,global,class=COMMON,space=1,delta=1,noexec
    10                           	psect	cstackBANK0,global,class=BANK0,space=1,delta=1,noexec
    11                           	psect	maintext,global,class=CODE,space=0,split=1,delta=2
    12                           	psect	text1,local,class=CODE,space=0,merge=1,delta=2
    13                           	psect	text2,local,class=CODE,space=0,merge=1,delta=2
    14                           	psect	text3,local,class=CODE,space=0,merge=1,delta=2
    15                           	psect	intentry,global,class=CODE,space=0,delta=2
    16                           	psect	text4,local,class=CODE,space=0,merge=1,delta=2
    17                           	psect	text5,local,class=CODE,space=0,merge=1,delta=2
    18                           	psect	text6,local,class=CODE,space=0,merge=1,delta=2
    19                           	psect	config,global,abs,ovrld,class=CONFIG,space=4,delta=2,noexec
    20                           	dabs	1,0x7E,2
    21     0000                     
    22                           ; Generated 22/03/2023 GMT
    23                           ; 
    24                           ; Copyright © 2023, Microchip Technology Inc. and its subsidiaries ("Microchip")
    25                           ; All rights reserved.
    26                           ; 
    27                           ; This software is developed by Microchip Technology Inc. and its subsidiaries ("Microch
      +                          ip").
    28                           ; 
    29                           ; Redistribution and use in source and binary forms, with or without modification, are
    30                           ; permitted provided that the following conditions are met:
    31                           ; 
    32                           ;     1. Redistributions of source code must retain the above copyright notice, this lis
      +                          t of
    33                           ;        conditions and the following disclaimer.
    34                           ; 
    35                           ;     2. Redistributions in binary form must reproduce the above copyright notice, this 
      +                          list
    36                           ;        of conditions and the following disclaimer in the documentation and/or other
    37                           ;        materials provided with the distribution. Publication is not required when
    38                           ;        this file is used in an embedded application.
    39                           ; 
    40                           ;     3. Microchip's name may not be used to endorse or promote products derived from th
      +                          is
    41                           ;        software without specific prior written permission.
    42                           ; 
    43                           ; THIS SOFTWARE IS PROVIDED BY MICROCHIP "AS IS" AND ANY EXPRESS OR IMPLIED WARRANTIES,
    44                           ; INCLUDING, BUT NOT LIMITED TO, THE IMPLIED WARRANTIES OF MERCHANTABILITY AND FITNESS F
      +                          OR
    45                           ; PURPOSE ARE DISCLAIMED.  IN NO EVENT SHALL MICROCHIP BE LIABLE FOR ANY DIRECT, INDIREC
      +                          T,
    46                           ; INCIDENTAL, SPECIAL, EXEMPLARY, OR CONSEQUENTIAL DAMAGES (INCLUDING BUT NOT LIMITED TO
    47                           ; PROCUREMENT OF SUBSTITUTE GOODS OR SERVICES; LOSS OF USE, DATA OR PROFITS; OR BUSINESS
    48                           ; INTERRUPTION) HOWSOEVER CAUSED AND ON ANY THEORY OF LIABILITY, WHETHER IN CONTRACT, ST
      +                          RICT
    49                           ; LIABILITY, OR TORT (INCLUDING NEGLIGENCE OR OTHERWISE) ARISING IN ANY WAY OUT OF THE U
      +                          SE OF
    50                           ; THIS SOFTWARE, EVEN IF ADVISED OF THE POSSIBILITY OF SUCH DAMAGE.
    51                           ; 
    52                           ; 
    53                           ; Code-generator required, PIC16F887 Definitions
    54                           ; 
    55                           ; SFR Addresses
    56     0004                     fsr             equ	4
    57     0004                     fsr0            equ	4
    58     0000                     indf            equ	0
    59     0000                     indf0           equ	0
    60     0002                     pc              equ	2
    61     0002                     pcl             equ	2
    62     000A                     pclath          equ	10
    63     0003                     status          equ	3
    64     0000                     INDF            equ	0	;# 
    65     0001                     TMR0            equ	1	;# 
    66     0002                     PCL             equ	2	;# 
    67     0003                     STATUS          equ	3	;# 
    68     0004                     FSR             equ	4	;# 
    69     0005                     PORTA           equ	5	;# 
    70     0006                     PORTB           equ	6	;# 
    71     0007                     PORTC           equ	7	;# 
    72     0008                     PORTD           equ	8	;# 
    73     0009                     PORTE           equ	9	;# 
    74     000A                     PCLATH          equ	10	;# 
    75     000B                     INTCON          equ	11	;# 
    76     000C                     PIR1            equ	12	;# 
    77     000D                     PIR2            equ	13	;# 
    78     000E                     TMR1            equ	14	;# 
    79     000E                     TMR1L           equ	14	;# 
    80     000F                     TMR1H           equ	15	;# 
    81     0010                     T1CON           equ	16	;# 
    82     0011                     TMR2            equ	17	;# 
    83     0012                     T2CON           equ	18	;# 
    84     0013                     SSPBUF          equ	19	;# 
    85     0014                     SSPCON          equ	20	;# 
    86     0015                     CCPR1           equ	21	;# 
    87     0015                     CCPR1L          equ	21	;# 
    88     0016                     CCPR1H          equ	22	;# 
    89     0017                     CCP1CON         equ	23	;# 
    90     0018                     RCSTA           equ	24	;# 
    91     0019                     TXREG           equ	25	;# 
    92     001A                     RCREG           equ	26	;# 
    93     001B                     CCPR2           equ	27	;# 
    94     001B                     CCPR2L          equ	27	;# 
    95     001C                     CCPR2H          equ	28	;# 
    96     001D                     CCP2CON         equ	29	;# 
    97     001E                     ADRESH          equ	30	;# 
    98     001F                     ADCON0          equ	31	;# 
    99     0081                     OPTION_REG      equ	129	;# 
   100     0085                     TRISA           equ	133	;# 
   101     0086                     TRISB           equ	134	;# 
   102     0087                     TRISC           equ	135	;# 
   103     0088                     TRISD           equ	136	;# 
   104     0089                     TRISE           equ	137	;# 
   105     008C                     PIE1            equ	140	;# 
   106     008D                     PIE2            equ	141	;# 
   107     008E                     PCON            equ	142	;# 
   108     008F                     OSCCON          equ	143	;# 
   109     0090                     OSCTUNE         equ	144	;# 
   110     0091                     SSPCON2         equ	145	;# 
   111     0092                     PR2             equ	146	;# 
   112     0093                     SSPADD          equ	147	;# 
   113     0093                     SSPMSK          equ	147	;# 
   114     0093                     MSK             equ	147	;# 
   115     0094                     SSPSTAT         equ	148	;# 
   116     0095                     WPUB            equ	149	;# 
   117     0096                     IOCB            equ	150	;# 
   118     0097                     VRCON           equ	151	;# 
   119     0098                     TXSTA           equ	152	;# 
   120     0099                     SPBRG           equ	153	;# 
   121     009A                     SPBRGH          equ	154	;# 
   122     009B                     PWM1CON         equ	155	;# 
   123     009C                     ECCPAS          equ	156	;# 
   124     009D                     PSTRCON         equ	157	;# 
   125     009E                     ADRESL          equ	158	;# 
   126     009F                     ADCON1          equ	159	;# 
   127     0105                     WDTCON          equ	261	;# 
   128     0107                     CM1CON0         equ	263	;# 
   129     0108                     CM2CON0         equ	264	;# 
   130     0109                     CM2CON1         equ	265	;# 
   131     010C                     EEDATA          equ	268	;# 
   132     010C                     EEDAT           equ	268	;# 
   133     010D                     EEADR           equ	269	;# 
   134     010E                     EEDATH          equ	270	;# 
   135     010F                     EEADRH          equ	271	;# 
   136     0185                     SRCON           equ	389	;# 
   137     0187                     BAUDCTL         equ	391	;# 
   138     0188                     ANSEL           equ	392	;# 
   139     0189                     ANSELH          equ	393	;# 
   140     018C                     EECON1          equ	396	;# 
   141     018D                     EECON2          equ	397	;# 
   142     0000                     INDF            equ	0	;# 
   143     0001                     TMR0            equ	1	;# 
   144     0002                     PCL             equ	2	;# 
   145     0003                     STATUS          equ	3	;# 
   146     0004                     FSR             equ	4	;# 
   147     0005                     PORTA           equ	5	;# 
   148     0006                     PORTB           equ	6	;# 
   149     0007                     PORTC           equ	7	;# 
   150     0008                     PORTD           equ	8	;# 
   151     0009                     PORTE           equ	9	;# 
   152     000A                     PCLATH          equ	10	;# 
   153     000B                     INTCON          equ	11	;# 
   154     000C                     PIR1            equ	12	;# 
   155     000D                     PIR2            equ	13	;# 
   156     000E                     TMR1            equ	14	;# 
   157     000E                     TMR1L           equ	14	;# 
   158     000F                     TMR1H           equ	15	;# 
   159     0010                     T1CON           equ	16	;# 
   160     0011                     TMR2            equ	17	;# 
   161     0012                     T2CON           equ	18	;# 
   162     0013                     SSPBUF          equ	19	;# 
   163     0014                     SSPCON          equ	20	;# 
   164     0015                     CCPR1           equ	21	;# 
   165     0015                     CCPR1L          equ	21	;# 
   166     0016                     CCPR1H          equ	22	;# 
   167     0017                     CCP1CON         equ	23	;# 
   168     0018                     RCSTA           equ	24	;# 
   169     0019                     TXREG           equ	25	;# 
   170     001A                     RCREG           equ	26	;# 
   171     001B                     CCPR2           equ	27	;# 
   172     001B                     CCPR2L          equ	27	;# 
   173     001C                     CCPR2H          equ	28	;# 
   174     001D                     CCP2CON         equ	29	;# 
   175     001E                     ADRESH          equ	30	;# 
   176     001F                     ADCON0          equ	31	;# 
   177     0081                     OPTION_REG      equ	129	;# 
   178     0085                     TRISA           equ	133	;# 
   179     0086                     TRISB           equ	134	;# 
   180     0087                     TRISC           equ	135	;# 
   181     0088                     TRISD           equ	136	;# 
   182     0089                     TRISE           equ	137	;# 
   183     008C                     PIE1            equ	140	;# 
   184     008D                     PIE2            equ	141	;# 
   185     008E                     PCON            equ	142	;# 
   186     008F                     OSCCON          equ	143	;# 
   187     0090                     OSCTUNE         equ	144	;# 
   188     0091                     SSPCON2         equ	145	;# 
   189     0092                     PR2             equ	146	;# 
   190     0093                     SSPADD          equ	147	;# 
   191     0093                     SSPMSK          equ	147	;# 
   192     0093                     MSK             equ	147	;# 
   193     0094                     SSPSTAT         equ	148	;# 
   194     0095                     WPUB            equ	149	;# 
   195     0096                     IOCB            equ	150	;# 
   196     0097                     VRCON           equ	151	;# 
   197     0098                     TXSTA           equ	152	;# 
   198     0099                     SPBRG           equ	153	;# 
   199     009A                     SPBRGH          equ	154	;# 
   200     009B                     PWM1CON         equ	155	;# 
   201     009C                     ECCPAS          equ	156	;# 
   202     009D                     PSTRCON         equ	157	;# 
   203     009E                     ADRESL          equ	158	;# 
   204     009F                     ADCON1          equ	159	;# 
   205     0105                     WDTCON          equ	261	;# 
   206     0107                     CM1CON0         equ	263	;# 
   207     0108                     CM2CON0         equ	264	;# 
   208     0109                     CM2CON1         equ	265	;# 
   209     010C                     EEDATA          equ	268	;# 
   210     010C                     EEDAT           equ	268	;# 
   211     010D                     EEADR           equ	269	;# 
   212     010E                     EEDATH          equ	270	;# 
   213     010F                     EEADRH          equ	271	;# 
   214     0185                     SRCON           equ	389	;# 
   215     0187                     BAUDCTL         equ	391	;# 
   216     0188                     ANSEL           equ	392	;# 
   217     0189                     ANSELH          equ	393	;# 
   218     018C                     EECON1          equ	396	;# 
   219     018D                     EECON2          equ	397	;# 
   220                           
   221                           	psect	idataBANK0
   222     04B7                     __pidataBANK0:
   223                           
   224                           ;initializer for Visualizza@F1428
   225     04B7  343F               	retlw	63
   226     04B8  3400               	retlw	0
   227     04B9  3471               	retlw	113
   228     04BA  3400               	retlw	0
   229     04BB  3479               	retlw	121
   230     04BC  3400               	retlw	0
   231     04BD  3454               	retlw	84
   232     04BE  3400               	retlw	0
   233     04BF  3458               	retlw	88
   234     04C0  3400               	retlw	0
   235     000B                     _INTCONbits     set	11
   236     000B                     _INTCON         set	11
   237     0008                     _PORTD          set	8
   238     0006                     _PORTB          set	6
   239     0005                     _PORTA          set	5
   240     0007                     _PORTC          set	7
   241     0035                     _RB5            set	53
   242     0046                     _RD6            set	70
   243     0045                     _RD5            set	69
   244     0034                     _RB4            set	52
   245     0036                     _RB6            set	54
   246     0031                     _RB1            set	49
   247     0032                     _RB2            set	50
   248     0033                     _RB3            set	51
   249     0030                     _RB0            set	48
   250     0047                     _RD7            set	71
   251     0043                     _RD3            set	67
   252     0042                     _RD2            set	66
   253     0044                     _RD4            set	68
   254     0081                     _OPTION_REG     set	129
   255     0088                     _TRISD          set	136
   256     0087                     _TRISC          set	135
   257     0086                     _TRISB          set	134
   258     0085                     _TRISA          set	133
   259     008F                     _OSCCON         set	143
   260     0189                     _ANSELH         set	393
   261     0188                     _ANSEL          set	392
   262                           
   263                           	psect	cinit
   264     07EC                     start_initialization:	
   265                           ; #config settings
   266                           
   267     07EC                     __initialization:
   268                           
   269                           ; Initialize objects allocated to BANK0
   270     07EC  1383               	bcf	3,7	;select IRP bank0
   271     07ED  304A               	movlw	low (__pdataBANK0+10)
   272     07EE  00FD               	movwf	btemp+-1
   273     07EF  3004               	movlw	high __pidataBANK0
   274     07F0  00FE               	movwf	btemp
   275     07F1  30B7               	movlw	low __pidataBANK0
   276     07F2  00FF               	movwf	btemp+1
   277     07F3  3040               	movlw	low __pdataBANK0
   278     07F4  0084               	movwf	4
   279     07F5  120A  118A  24C5  120A  118A  	fcall	init_ram0
   280                           
   281                           ; Clear objects allocated to COMMON
   282     07FA  01FC               	clrf	__pbssCOMMON& (0+127)
   283     07FB  01FD               	clrf	(__pbssCOMMON+1)& (0+127)
   284     07FC                     end_of_initialization:	
   285                           ;End of C runtime variable initialization code
   286                           
   287     07FC                     __end_of__initialization:
   288     07FC  0183               	clrf	3
   289     07FD  120A  118A  2E6A   	ljmp	_main	;jump to C main() function
   290                           
   291                           	psect	bssCOMMON
   292     007C                     __pbssCOMMON:
   293     007C                     _stato:
   294     007C                     	ds	2
   295                           
   296                           	psect	dataBANK0
   297     0040                     __pdataBANK0:
   298     0040                     Visualizza@F1428:
   299     0040                     	ds	10
   300                           
   301                           	psect	inittext
   302     04C1                     init_fetch0:	
   303                           ;	Called with low address in FSR and high address in W
   304                           
   305     04C1  087E               	movf	btemp,w
   306     04C2  008A               	movwf	10
   307     04C3  087F               	movf	btemp+1,w
   308     04C4  0082               	movwf	2
   309     04C5                     init_ram0:	
   310                           ;Called with:
   311                           ;	high address of idata address in btemp 
   312                           ;	low address of idata address in btemp+1 
   313                           ;	low address of data in FSR
   314                           ;	high address + 1 of data in btemp-1
   315                           
   316     04C5  120A  118A  24C1  120A  118A  	fcall	init_fetch0
   317     04CA  0080               	movwf	0
   318     04CB  0A84               	incf	4,f
   319     04CC  0804               	movf	4,w
   320     04CD  067D               	xorwf	btemp+-1,w
   321     04CE  1903               	btfsc	3,2
   322     04CF  3400               	retlw	0
   323     04D0  0AFF               	incf	btemp+1,f
   324     04D1  1903               	btfsc	3,2
   325     04D2  0AFE               	incf	btemp,f
   326     04D3  2CC5               	goto	init_ram0
   327                           
   328                           	psect	cstackCOMMON
   329     0071                     __pcstackCOMMON:
   330     0071                     ?_Stop:
   331     0071                     ?_main:	
   332                           ; 1 bytes @ 0x0
   333                           
   334     0071                     ?_ISR:	
   335                           ; 1 bytes @ 0x0
   336                           
   337     0071                     ?i1_Irrigazione:	
   338                           ; 1 bytes @ 0x0
   339                           
   340     0071                     ?i1_Visualizza:	
   341                           ; 1 bytes @ 0x0
   342                           
   343     0071                     i1Irrigazione@power:	
   344                           ; 1 bytes @ 0x0
   345                           
   346     0071                     i1Visualizza@display:	
   347                           ; 2 bytes @ 0x0
   348                           
   349                           
   350                           ; 2 bytes @ 0x0
   351     0071                     	ds	2
   352     0073                     i1Irrigazione@direzione:
   353     0073                     ??i1_Visualizza:	
   354                           ; 2 bytes @ 0x2
   355                           
   356                           
   357                           ; 1 bytes @ 0x2
   358     0073                     	ds	2
   359     0075                     i1Irrigazione@velocita:
   360                           
   361                           ; 2 bytes @ 0x4
   362     0075                     	ds	2
   363     0077                     i1Irrigazione@irrigazione:
   364                           
   365                           ; 2 bytes @ 0x6
   366     0077                     	ds	2
   367     0079                     ??_Stop:
   368     0079                     ??i1_Irrigazione:	
   369                           ; 1 bytes @ 0x8
   370                           
   371                           
   372                           ; 1 bytes @ 0x8
   373     0079                     	ds	3
   374                           
   375                           	psect	cstackBANK0
   376     0020                     __pcstackBANK0:
   377     0020                     i1Visualizza@lettera:
   378                           
   379                           ; 10 bytes @ 0x0
   380     0020                     	ds	10
   381     002A                     ??_ISR:
   382                           
   383                           ; 1 bytes @ 0xA
   384     002A                     	ds	3
   385     002D                     ?_Irrigazione:
   386     002D                     ?_Visualizza:	
   387                           ; 1 bytes @ 0xD
   388                           
   389     002D                     Irrigazione@power:	
   390                           ; 1 bytes @ 0xD
   391                           
   392     002D                     Visualizza@display:	
   393                           ; 2 bytes @ 0xD
   394                           
   395                           
   396                           ; 2 bytes @ 0xD
   397     002D                     	ds	2
   398     002F                     Irrigazione@direzione:
   399     002F                     ??_Visualizza:	
   400                           ; 2 bytes @ 0xF
   401                           
   402                           
   403                           ; 1 bytes @ 0xF
   404     002F                     	ds	2
   405     0031                     Irrigazione@velocita:
   406                           
   407                           ; 2 bytes @ 0x11
   408     0031                     	ds	2
   409     0033                     Irrigazione@irrigazione:
   410     0033                     Visualizza@lettera:	
   411                           ; 2 bytes @ 0x13
   412                           
   413                           
   414                           ; 10 bytes @ 0x13
   415     0033                     	ds	2
   416     0035                     ??_Irrigazione:
   417                           
   418                           ; 1 bytes @ 0x15
   419     0035                     	ds	8
   420     003D                     ??_main:
   421                           
   422                           ; 1 bytes @ 0x1D
   423     003D                     	ds	3
   424                           
   425                           	psect	maintext
   426     066A                     __pmaintext:	
   427 ;;
   428 ;;Main: autosize = 0, tempsize = 3, incstack = 0, save=0
   429 ;;
   430 ;; *************** function _main *****************
   431 ;; Defined at:
   432 ;;		line 146 in file "main.c"
   433 ;; Parameters:    Size  Location     Type
   434 ;;		None
   435 ;; Auto vars:     Size  Location     Type
   436 ;;		None
   437 ;; Return value:  Size  Location     Type
   438 ;;                  1    wreg      void 
   439 ;; Registers used:
   440 ;;		wreg, fsr0l, fsr0h, status,2, status,0, pclath, cstack
   441 ;; Tracked objects:
   442 ;;		On entry : B00/0
   443 ;;		On exit  : 0/0
   444 ;;		Unchanged: 0/0
   445 ;; Data sizes:     COMMON   BANK0   BANK1   BANK3   BANK2
   446 ;;      Params:         0       0       0       0       0
   447 ;;      Locals:         0       0       0       0       0
   448 ;;      Temps:          0       3       0       0       0
   449 ;;      Totals:         0       3       0       0       0
   450 ;;Total ram usage:        3 bytes
   451 ;; Hardware stack levels required when called: 4
   452 ;; This function calls:
   453 ;;		_Irrigazione
   454 ;;		_Visualizza
   455 ;; This function is called by:
   456 ;;		Startup code after reset
   457 ;; This function uses a non-reentrant model
   458 ;;
   459                           
   460     066A                     _main:	
   461                           ;psect for function _main
   462                           
   463     066A                     l1084:	
   464                           ;incstack = 0
   465                           ; Regs used in _main: [wreg-fsr0h+status,2+status,0+pclath+cstack]
   466                           
   467                           
   468                           ;main.c: 148:     OSCCON |=0x60;
   469     066A  3060               	movlw	96
   470     066B  1683               	bsf	3,5	;RP0=1, select bank1
   471     066C  1303               	bcf	3,6	;RP1=0, select bank1
   472     066D  048F               	iorwf	15,f	;volatile
   473     066E                     l1086:
   474                           
   475                           ;main.c: 149:     PORTA = 0x00;
   476     066E  1283               	bcf	3,5	;RP0=0, select bank0
   477     066F  1303               	bcf	3,6	;RP1=0, select bank0
   478     0670  0185               	clrf	5	;volatile
   479     0671                     l1088:
   480                           
   481                           ;main.c: 150:     PORTB = 0x00;
   482     0671  0186               	clrf	6	;volatile
   483     0672                     l1090:
   484                           
   485                           ;main.c: 151:     PORTC = 0x00;
   486     0672  0187               	clrf	7	;volatile
   487     0673                     l1092:
   488                           
   489                           ;main.c: 152:     PORTD = 0x00;
   490     0673  0188               	clrf	8	;volatile
   491     0674                     l1094:
   492                           
   493                           ;main.c: 155:     TRISA = 0b00000000;
   494     0674  1683               	bsf	3,5	;RP0=1, select bank1
   495     0675  1303               	bcf	3,6	;RP1=0, select bank1
   496     0676  0185               	clrf	5	;volatile
   497     0677                     l1096:
   498                           
   499                           ;main.c: 156:     TRISB = 0b11111111;
   500     0677  30FF               	movlw	255
   501     0678  0086               	movwf	6	;volatile
   502     0679                     l1098:
   503                           
   504                           ;main.c: 157:     TRISC = 0b00000000;
   505     0679  0187               	clrf	7	;volatile
   506     067A                     l1100:
   507                           
   508                           ;main.c: 158:     TRISD = 0b00000000;
   509     067A  0188               	clrf	8	;volatile
   510     067B                     l1102:
   511                           
   512                           ;main.c: 160:     INTCON = 0b11011100;
   513     067B  30DC               	movlw	220
   514     067C  008B               	movwf	11	;volatile
   515     067D                     l1104:
   516                           
   517                           ;main.c: 162:     ANSEL = 0x00;
   518     067D  1683               	bsf	3,5	;RP0=1, select bank3
   519     067E  1703               	bsf	3,6	;RP1=1, select bank3
   520     067F  0188               	clrf	8	;volatile
   521     0680                     l1106:
   522                           
   523                           ;main.c: 163:     ANSELH = 0x00;
   524     0680  0189               	clrf	9	;volatile
   525     0681                     l1108:
   526                           
   527                           ;main.c: 165:     OPTION_REG = 0b00000011;
   528     0681  3003               	movlw	3
   529     0682  1683               	bsf	3,5	;RP0=1, select bank1
   530     0683  1303               	bcf	3,6	;RP1=0, select bank1
   531     0684  0081               	movwf	1	;volatile
   532     0685                     l1110:
   533                           
   534                           ;main.c: 170:     Visualizza(4);
   535     0685  3004               	movlw	4
   536     0686  1283               	bcf	3,5	;RP0=0, select bank0
   537     0687  1303               	bcf	3,6	;RP1=0, select bank0
   538     0688  00AD               	movwf	Visualizza@display
   539     0689  3000               	movlw	0
   540     068A  00AE               	movwf	Visualizza@display+1
   541     068B  120A  118A  25C0  120A  118A  	fcall	_Visualizza
   542     0690                     l1112:
   543                           
   544                           ;main.c: 171:     Irrigazione(0, 0, 0, 0);
   545     0690  3000               	movlw	0
   546     0691  1283               	bcf	3,5	;RP0=0, select bank0
   547     0692  1303               	bcf	3,6	;RP1=0, select bank0
   548     0693  00AD               	movwf	Irrigazione@power
   549     0694  00AE               	movwf	Irrigazione@power+1
   550     0695  3000               	movlw	0
   551     0696  00AF               	movwf	Irrigazione@direzione
   552     0697  00B0               	movwf	Irrigazione@direzione+1
   553     0698  3000               	movlw	0
   554     0699  00B1               	movwf	Irrigazione@velocita
   555     069A  00B2               	movwf	Irrigazione@velocita+1
   556     069B  3000               	movlw	0
   557     069C  00B3               	movwf	Irrigazione@irrigazione
   558     069D  00B4               	movwf	Irrigazione@irrigazione+1
   559     069E  120A  118A  24ED  120A  118A  	fcall	_Irrigazione
   560     06A3                     l1114:
   561                           
   562                           ;main.c: 174:     {;main.c: 175:          if (RB3 == 0 && RB2 == 0)
   563     06A3  1283               	bcf	3,5	;RP0=0, select bank0
   564     06A4  1303               	bcf	3,6	;RP1=0, select bank0
   565     06A5  1986               	btfsc	6,3	;volatile
   566     06A6  2EA8               	goto	u751
   567     06A7  2EA9               	goto	u750
   568     06A8                     u751:
   569     06A8  2FC0               	goto	l1178
   570     06A9                     u750:
   571     06A9                     l1116:
   572     06A9  1906               	btfsc	6,2	;volatile
   573     06AA  2EAC               	goto	u761
   574     06AB  2EAD               	goto	u760
   575     06AC                     u761:
   576     06AC  2FC0               	goto	l1178
   577     06AD                     u760:
   578     06AD                     l1118:
   579                           
   580                           ;main.c: 176:         {;main.c: 177:             Visualizza(2);
   581     06AD  3002               	movlw	2
   582     06AE  00AD               	movwf	Visualizza@display
   583     06AF  3000               	movlw	0
   584     06B0  00AE               	movwf	Visualizza@display+1
   585     06B1  120A  118A  25C0  120A  118A  	fcall	_Visualizza
   586     06B6                     l1120:
   587                           
   588                           ;main.c: 178:             Irrigazione(0, 0, 0, 0);
   589     06B6  3000               	movlw	0
   590     06B7  1283               	bcf	3,5	;RP0=0, select bank0
   591     06B8  1303               	bcf	3,6	;RP1=0, select bank0
   592     06B9  00AD               	movwf	Irrigazione@power
   593     06BA  00AE               	movwf	Irrigazione@power+1
   594     06BB  3000               	movlw	0
   595     06BC  00AF               	movwf	Irrigazione@direzione
   596     06BD  00B0               	movwf	Irrigazione@direzione+1
   597     06BE  3000               	movlw	0
   598     06BF  00B1               	movwf	Irrigazione@velocita
   599     06C0  00B2               	movwf	Irrigazione@velocita+1
   600     06C1  3000               	movlw	0
   601     06C2  00B3               	movwf	Irrigazione@irrigazione
   602     06C3  00B4               	movwf	Irrigazione@irrigazione+1
   603     06C4  120A  118A  24ED  120A  118A  	fcall	_Irrigazione
   604     06C9                     l1122:
   605                           
   606                           ;main.c: 179:             stato=0;
   607     06C9  01FC               	clrf	_stato
   608     06CA  01FD               	clrf	_stato+1
   609     06CB  2FC0               	goto	l1178
   610     06CC                     l1124:
   611                           
   612                           ;main.c: 185:                 Visualizza(4);
   613     06CC  3004               	movlw	4
   614     06CD  1283               	bcf	3,5	;RP0=0, select bank0
   615     06CE  1303               	bcf	3,6	;RP1=0, select bank0
   616     06CF  00AD               	movwf	Visualizza@display
   617     06D0  3000               	movlw	0
   618     06D1  00AE               	movwf	Visualizza@display+1
   619     06D2  120A  118A  25C0  120A  118A  	fcall	_Visualizza
   620     06D7                     l1126:
   621                           
   622                           ;main.c: 186:                 if(RB1 == 0)
   623     06D7  1283               	bcf	3,5	;RP0=0, select bank0
   624     06D8  1303               	bcf	3,6	;RP1=0, select bank0
   625     06D9  1886               	btfsc	6,1	;volatile
   626     06DA  2EDC               	goto	u771
   627     06DB  2EDD               	goto	u770
   628     06DC                     u771:
   629     06DC  2EE9               	goto	l1132
   630     06DD                     u770:
   631     06DD                     l1128:
   632                           
   633                           ;main.c: 187:                 {;main.c: 188:                     Visualizza(0);
   634     06DD  3000               	movlw	0
   635     06DE  00AD               	movwf	Visualizza@display
   636     06DF  00AE               	movwf	Visualizza@display+1
   637     06E0  120A  118A  25C0  120A  118A  	fcall	_Visualizza
   638     06E5                     l1130:
   639                           
   640                           ;main.c: 189:                     stato=1;
   641     06E5  3001               	movlw	1
   642     06E6  00FC               	movwf	_stato
   643     06E7  3000               	movlw	0
   644     06E8  00FD               	movwf	_stato+1
   645     06E9                     l1132:
   646                           
   647                           ;main.c: 192:                 if (RB6 ==1)
   648     06E9  2EA3               	goto	l1114
   649     06EA                     l99:	
   650                           ;main.c: 198:             case 1:
   651                           
   652                           
   653                           ;main.c: 199:                 if(RB3==1)
   654     06EA  1283               	bcf	3,5	;RP0=0, select bank0
   655     06EB  1303               	bcf	3,6	;RP1=0, select bank0
   656     06EC  1D86               	btfss	6,3	;volatile
   657     06ED  2EEF               	goto	u781
   658     06EE  2EF0               	goto	u780
   659     06EF                     u781:
   660     06EF  2F08               	goto	l100
   661     06F0                     u780:
   662     06F0                     l1134:
   663                           
   664                           ;main.c: 200:                 {;main.c: 201:                     Irrigazione(1, 0, 1, 0)
      +                          ;
   665     06F0  3001               	movlw	1
   666     06F1  00AD               	movwf	Irrigazione@power
   667     06F2  3000               	movlw	0
   668     06F3  00AE               	movwf	Irrigazione@power+1
   669     06F4  3000               	movlw	0
   670     06F5  00AF               	movwf	Irrigazione@direzione
   671     06F6  00B0               	movwf	Irrigazione@direzione+1
   672     06F7  3001               	movlw	1
   673     06F8  00B1               	movwf	Irrigazione@velocita
   674     06F9  3000               	movlw	0
   675     06FA  00B2               	movwf	Irrigazione@velocita+1
   676     06FB  3000               	movlw	0
   677     06FC  00B3               	movwf	Irrigazione@irrigazione
   678     06FD  00B4               	movwf	Irrigazione@irrigazione+1
   679     06FE  120A  118A  24ED  120A  118A  	fcall	_Irrigazione
   680     0703                     l1136:
   681                           
   682                           ;main.c: 202:                     stato=2;
   683     0703  3002               	movlw	2
   684     0704  00FC               	movwf	_stato
   685     0705  3000               	movlw	0
   686     0706  00FD               	movwf	_stato+1
   687                           
   688                           ;main.c: 203:                 }
   689     0707  2EA3               	goto	l1114
   690     0708                     l100:	
   691                           ;main.c: 204:                 else if(RB3==0)stato=3;
   692                           
   693     0708  1986               	btfsc	6,3	;volatile
   694     0709  2F0B               	goto	u791
   695     070A  2F0C               	goto	u790
   696     070B                     u791:
   697     070B  2FE8               	goto	l98
   698     070C                     u790:
   699     070C                     l1138:
   700     070C  3003               	movlw	3
   701     070D  00FC               	movwf	_stato
   702     070E  3000               	movlw	0
   703     070F  00FD               	movwf	_stato+1
   704     0710  2EA3               	goto	l1114
   705     0711                     l103:	
   706                           ;main.c: 207:             case 2:
   707                           
   708                           
   709                           ;main.c: 208:                 if(RB3==0)stato=3;
   710     0711  1283               	bcf	3,5	;RP0=0, select bank0
   711     0712  1303               	bcf	3,6	;RP1=0, select bank0
   712     0713  1986               	btfsc	6,3	;volatile
   713     0714  2F16               	goto	u801
   714     0715  2F17               	goto	u800
   715     0716                     u801:
   716     0716  2EA3               	goto	l1114
   717     0717                     u800:
   718     0717  2F0C               	goto	l1138
   719     0718                     l1142:
   720                           
   721                           ;main.c: 212:                 Irrigazione(1, 1, 0, 1);
   722     0718  3001               	movlw	1
   723     0719  1283               	bcf	3,5	;RP0=0, select bank0
   724     071A  1303               	bcf	3,6	;RP1=0, select bank0
   725     071B  00AD               	movwf	Irrigazione@power
   726     071C  3000               	movlw	0
   727     071D  00AE               	movwf	Irrigazione@power+1
   728     071E  3001               	movlw	1
   729     071F  00AF               	movwf	Irrigazione@direzione
   730     0720  3000               	movlw	0
   731     0721  00B0               	movwf	Irrigazione@direzione+1
   732     0722  3000               	movlw	0
   733     0723  00B1               	movwf	Irrigazione@velocita
   734     0724  00B2               	movwf	Irrigazione@velocita+1
   735     0725  3001               	movlw	1
   736     0726  00B3               	movwf	Irrigazione@irrigazione
   737     0727  3000               	movlw	0
   738     0728  00B4               	movwf	Irrigazione@irrigazione+1
   739     0729  120A  118A  24ED  120A  118A  	fcall	_Irrigazione
   740     072E                     l1144:
   741                           
   742                           ;main.c: 213:                 stato=4;
   743     072E  3004               	movlw	4
   744     072F  00FC               	movwf	_stato
   745     0730  3000               	movlw	0
   746     0731  00FD               	movwf	_stato+1
   747                           
   748                           ;main.c: 214:                 break;
   749     0732  2EA3               	goto	l1114
   750     0733                     l106:	
   751                           ;main.c: 216:             case 4:
   752                           
   753                           
   754                           ;main.c: 217:                 if (RB2==0) stato=5;
   755     0733  1283               	bcf	3,5	;RP0=0, select bank0
   756     0734  1303               	bcf	3,6	;RP1=0, select bank0
   757     0735  1906               	btfsc	6,2	;volatile
   758     0736  2F38               	goto	u811
   759     0737  2F39               	goto	u810
   760     0738                     u811:
   761     0738  2EA3               	goto	l1114
   762     0739                     u810:
   763     0739                     l1146:
   764     0739  3005               	movlw	5
   765     073A  00FC               	movwf	_stato
   766     073B  3000               	movlw	0
   767     073C  00FD               	movwf	_stato+1
   768     073D  2EA3               	goto	l1114
   769     073E                     l108:	
   770                           ;main.c: 220:             case 5:
   771                           
   772                           
   773                           ;main.c: 221:                 if (RB4==0)
   774     073E  1283               	bcf	3,5	;RP0=0, select bank0
   775     073F  1303               	bcf	3,6	;RP1=0, select bank0
   776     0740  1A06               	btfsc	6,4	;volatile
   777     0741  2F43               	goto	u821
   778     0742  2F44               	goto	u820
   779     0743                     u821:
   780     0743  2F5C               	goto	l109
   781     0744                     u820:
   782     0744                     l1148:
   783                           
   784                           ;main.c: 222:                 {;main.c: 223:                     Irrigazione(1, 0, 1, 0)
      +                          ;
   785     0744  3001               	movlw	1
   786     0745  00AD               	movwf	Irrigazione@power
   787     0746  3000               	movlw	0
   788     0747  00AE               	movwf	Irrigazione@power+1
   789     0748  3000               	movlw	0
   790     0749  00AF               	movwf	Irrigazione@direzione
   791     074A  00B0               	movwf	Irrigazione@direzione+1
   792     074B  3001               	movlw	1
   793     074C  00B1               	movwf	Irrigazione@velocita
   794     074D  3000               	movlw	0
   795     074E  00B2               	movwf	Irrigazione@velocita+1
   796     074F  3000               	movlw	0
   797     0750  00B3               	movwf	Irrigazione@irrigazione
   798     0751  00B4               	movwf	Irrigazione@irrigazione+1
   799     0752  120A  118A  24ED  120A  118A  	fcall	_Irrigazione
   800     0757                     l1150:
   801                           
   802                           ;main.c: 224:                     stato=6;
   803     0757  3006               	movlw	6
   804     0758  00FC               	movwf	_stato
   805     0759  3000               	movlw	0
   806     075A  00FD               	movwf	_stato+1
   807                           
   808                           ;main.c: 225:                 }
   809     075B  2EA3               	goto	l1114
   810     075C                     l109:	
   811                           ;main.c: 226:                 else if (RB4==1)
   812                           
   813     075C  1E06               	btfss	6,4	;volatile
   814     075D  2F5F               	goto	u831
   815     075E  2F60               	goto	u830
   816     075F                     u831:
   817     075F  2FE8               	goto	l98
   818     0760                     u830:
   819     0760                     l1152:
   820                           
   821                           ;main.c: 227:                 {;main.c: 228:                     Irrigazione(1,0, 0, 1);
   822     0760  3001               	movlw	1
   823     0761  00AD               	movwf	Irrigazione@power
   824     0762  3000               	movlw	0
   825     0763  00AE               	movwf	Irrigazione@power+1
   826     0764  3000               	movlw	0
   827     0765  00AF               	movwf	Irrigazione@direzione
   828     0766  00B0               	movwf	Irrigazione@direzione+1
   829     0767  3000               	movlw	0
   830     0768  00B1               	movwf	Irrigazione@velocita
   831     0769  00B2               	movwf	Irrigazione@velocita+1
   832     076A  3001               	movlw	1
   833     076B  00B3               	movwf	Irrigazione@irrigazione
   834     076C  3000               	movlw	0
   835     076D  00B4               	movwf	Irrigazione@irrigazione+1
   836     076E  120A  118A  24ED  120A  118A  	fcall	_Irrigazione
   837     0773                     l1154:
   838                           
   839                           ;main.c: 229:                     stato=7;
   840     0773  3007               	movlw	7
   841     0774  00FC               	movwf	_stato
   842     0775  3000               	movlw	0
   843     0776  00FD               	movwf	_stato+1
   844     0777  2EA3               	goto	l1114
   845     0778                     l112:	
   846                           ;main.c: 233:             case 6:
   847                           
   848                           
   849                           ;main.c: 234:                 if (RB3==0)
   850     0778  1283               	bcf	3,5	;RP0=0, select bank0
   851     0779  1303               	bcf	3,6	;RP1=0, select bank0
   852     077A  1986               	btfsc	6,3	;volatile
   853     077B  2F7D               	goto	u841
   854     077C  2F7E               	goto	u840
   855     077D                     u841:
   856     077D  2EA3               	goto	l1114
   857     077E                     u840:
   858     077E                     l1156:
   859                           
   860                           ;main.c: 235:                 {;main.c: 236:                     Irrigazione(0,0, 0, 0);
   861     077E  3000               	movlw	0
   862     077F  00AD               	movwf	Irrigazione@power
   863     0780  00AE               	movwf	Irrigazione@power+1
   864     0781  3000               	movlw	0
   865     0782  00AF               	movwf	Irrigazione@direzione
   866     0783  00B0               	movwf	Irrigazione@direzione+1
   867     0784  3000               	movlw	0
   868     0785  00B1               	movwf	Irrigazione@velocita
   869     0786  00B2               	movwf	Irrigazione@velocita+1
   870     0787  3000               	movlw	0
   871     0788  00B3               	movwf	Irrigazione@irrigazione
   872     0789  00B4               	movwf	Irrigazione@irrigazione+1
   873     078A  120A  118A  24ED  120A  118A  	fcall	_Irrigazione
   874     078F                     l1158:
   875                           
   876                           ;main.c: 237:                     stato=8;
   877     078F  3008               	movlw	8
   878     0790  00FC               	movwf	_stato
   879     0791  3000               	movlw	0
   880     0792  00FD               	movwf	_stato+1
   881     0793  2EA3               	goto	l1114
   882     0794                     l114:	
   883                           ;main.c: 241:             case 7:
   884                           
   885                           
   886                           ;main.c: 242:                 if (RB3==0)
   887     0794  1283               	bcf	3,5	;RP0=0, select bank0
   888     0795  1303               	bcf	3,6	;RP1=0, select bank0
   889     0796  1986               	btfsc	6,3	;volatile
   890     0797  2F99               	goto	u851
   891     0798  2F9A               	goto	u850
   892     0799                     u851:
   893     0799  2EA3               	goto	l1114
   894     079A                     u850:
   895     079A  2F7E               	goto	l1156
   896     079B                     l1164:
   897                           
   898                           ;main.c: 250:                 stato=0;
   899     079B  01FC               	clrf	_stato
   900     079C  01FD               	clrf	_stato+1
   901                           
   902                           ;main.c: 251:                 break;
   903     079D  2EA3               	goto	l1114
   904     079E                     l117:	
   905                           ;main.c: 253:             case 10:
   906                           
   907                           
   908                           ;main.c: 254:                 RD5 = 1;
   909     079E  1283               	bcf	3,5	;RP0=0, select bank0
   910     079F  1303               	bcf	3,6	;RP1=0, select bank0
   911     07A0  1688               	bsf	8,5	;volatile
   912     07A1                     l1166:
   913                           
   914                           ;main.c: 255:                 _delay((unsigned long)((3000)*(4000000/4000.0)));
   915     07A1  3010               	movlw	16
   916     07A2  1283               	bcf	3,5	;RP0=0, select bank0
   917     07A3  1303               	bcf	3,6	;RP1=0, select bank0
   918     07A4  00BF               	movwf	??_main+2
   919     07A5  3039               	movlw	57
   920     07A6  00BE               	movwf	??_main+1
   921     07A7  300D               	movlw	13
   922     07A8  00BD               	movwf	??_main
   923     07A9                     u897:
   924     07A9  0BBD               	decfsz	??_main,f
   925     07AA  2FA9               	goto	u897
   926     07AB  0BBE               	decfsz	??_main+1,f
   927     07AC  2FA9               	goto	u897
   928     07AD  0BBF               	decfsz	??_main+2,f
   929     07AE  2FA9               	goto	u897
   930     07AF                     l1168:
   931                           
   932                           ;main.c: 256:                 RD6 = 1;
   933     07AF  1283               	bcf	3,5	;RP0=0, select bank0
   934     07B0  1303               	bcf	3,6	;RP1=0, select bank0
   935     07B1  1708               	bsf	8,6	;volatile
   936     07B2                     l1170:
   937                           
   938                           ;main.c: 257:                 if (RB5 == 0)
   939     07B2  1A86               	btfsc	6,5	;volatile
   940     07B3  2FB5               	goto	u861
   941     07B4  2FB6               	goto	u860
   942     07B5                     u861:
   943     07B5  2EA3               	goto	l1114
   944     07B6                     u860:
   945     07B6                     l1172:
   946                           
   947                           ;main.c: 258:                 {;main.c: 259:                     stato=11;
   948     07B6  300B               	movlw	11
   949     07B7  00FC               	movwf	_stato
   950     07B8  3000               	movlw	0
   951     07B9  00FD               	movwf	_stato+1
   952     07BA  2EA3               	goto	l1114
   953     07BB                     l119:	
   954                           ;main.c: 263:             case 11:
   955                           
   956                           
   957                           ;main.c: 264:                 RD6 = 0;
   958     07BB  1283               	bcf	3,5	;RP0=0, select bank0
   959     07BC  1303               	bcf	3,6	;RP1=0, select bank0
   960     07BD  1308               	bcf	8,6	;volatile
   961                           
   962                           ;main.c: 265:                 RD5 = 0;
   963     07BE  1288               	bcf	8,5	;volatile
   964     07BF  2F9B               	goto	l1164
   965     07C0                     l1178:
   966                           
   967                           ; Switch on 2 bytes has been partitioned into a top level switch of size 1, and 1 sub-sw
      +                          itches
   968                           ; Switch size 1, requested type "simple"
   969                           ; Number of cases is 1, Range of values is 0 to 0
   970                           ; switch strategies available:
   971                           ; Name         Instructions Cycles
   972                           ; simple_byte            4     3 (average)
   973                           ; direct_byte           11     8 (fixed)
   974                           ; jumptable            260     6 (fixed)
   975                           ;	Chosen strategy is simple_byte
   976     07C0  087D               	movf	_stato+1,w
   977     07C1  3A00               	xorlw	0	; case 0
   978     07C2  1903               	skipnz
   979     07C3  2FC5               	goto	l1224
   980     07C4  2EA3               	goto	l1114
   981     07C5                     l1224:
   982                           
   983                           ; Switch size 1, requested type "simple"
   984                           ; Number of cases is 11, Range of values is 0 to 11
   985                           ; switch strategies available:
   986                           ; Name         Instructions Cycles
   987                           ; simple_byte           34    18 (average)
   988                           ; direct_byte           44     8 (fixed)
   989                           ; jumptable            260     6 (fixed)
   990                           ;	Chosen strategy is simple_byte
   991     07C5  087C               	movf	_stato,w
   992     07C6  3A00               	xorlw	0	; case 0
   993     07C7  1903               	skipnz
   994     07C8  2ECC               	goto	l1124
   995     07C9  3A01               	xorlw	1	; case 1
   996     07CA  1903               	skipnz
   997     07CB  2EEA               	goto	l99
   998     07CC  3A03               	xorlw	3	; case 2
   999     07CD  1903               	skipnz
  1000     07CE  2F11               	goto	l103
  1001     07CF  3A01               	xorlw	1	; case 3
  1002     07D0  1903               	skipnz
  1003     07D1  2F18               	goto	l1142
  1004     07D2  3A07               	xorlw	7	; case 4
  1005     07D3  1903               	skipnz
  1006     07D4  2F33               	goto	l106
  1007     07D5  3A01               	xorlw	1	; case 5
  1008     07D6  1903               	skipnz
  1009     07D7  2F3E               	goto	l108
  1010     07D8  3A03               	xorlw	3	; case 6
  1011     07D9  1903               	skipnz
  1012     07DA  2F78               	goto	l112
  1013     07DB  3A01               	xorlw	1	; case 7
  1014     07DC  1903               	skipnz
  1015     07DD  2F94               	goto	l114
  1016     07DE  3A0F               	xorlw	15	; case 8
  1017     07DF  1903               	skipnz
  1018     07E0  2F9B               	goto	l1164
  1019     07E1  3A02               	xorlw	2	; case 10
  1020     07E2  1903               	skipnz
  1021     07E3  2F9E               	goto	l117
  1022     07E4  3A01               	xorlw	1	; case 11
  1023     07E5  1903               	skipnz
  1024     07E6  2FBB               	goto	l119
  1025     07E7  2EA3               	goto	l1114
  1026     07E8                     l98:
  1027     07E8  2EA3               	goto	l1114
  1028     07E9  120A  118A  2810   	ljmp	start
  1029     07EC                     __end_of_main:
  1030                           
  1031                           	psect	text1
  1032     05C0                     __ptext1:	
  1033 ;; *************** function _Visualizza *****************
  1034 ;; Defined at:
  1035 ;;		line 92 in file "main.c"
  1036 ;; Parameters:    Size  Location     Type
  1037 ;;  display         2   13[BANK0 ] int 
  1038 ;; Auto vars:     Size  Location     Type
  1039 ;;  lettera        10   19[BANK0 ] unsigned int [5]
  1040 ;; Return value:  Size  Location     Type
  1041 ;;                  1    wreg      void 
  1042 ;; Registers used:
  1043 ;;		wreg, fsr0l, fsr0h, status,2, status,0
  1044 ;; Tracked objects:
  1045 ;;		On entry : 0/0
  1046 ;;		On exit  : 0/0
  1047 ;;		Unchanged: 0/0
  1048 ;; Data sizes:     COMMON   BANK0   BANK1   BANK3   BANK2
  1049 ;;      Params:         0       2       0       0       0
  1050 ;;      Locals:         0      10       0       0       0
  1051 ;;      Temps:          0       4       0       0       0
  1052 ;;      Totals:         0      16       0       0       0
  1053 ;;Total ram usage:       16 bytes
  1054 ;; Hardware stack levels used: 1
  1055 ;; Hardware stack levels required when called: 3
  1056 ;; This function calls:
  1057 ;;		Nothing
  1058 ;; This function is called by:
  1059 ;;		_main
  1060 ;; This function uses a non-reentrant model
  1061 ;;
  1062                           
  1063     05C0                     _Visualizza:	
  1064                           ;psect for function _Visualizza
  1065                           
  1066     05C0                     l1038:	
  1067                           ;incstack = 0
  1068                           ; Regs used in _Visualizza: [wreg-fsr0h+status,2+status,0]
  1069                           
  1070                           
  1071                           ;main.c: 92: void Visualizza (int display);main.c: 93: {;main.c: 94:     PORTC =0b111111
      +                          11;
  1072     05C0  30FF               	movlw	255
  1073     05C1  1283               	bcf	3,5	;RP0=0, select bank0
  1074     05C2  1303               	bcf	3,6	;RP1=0, select bank0
  1075     05C3  0087               	movwf	7	;volatile
  1076     05C4                     l1040:
  1077                           
  1078                           ;main.c: 95:     unsigned int lettera[5] = {0b00111111, 0b01110001, 0b01111001, 0b010101
      +                          00, 0b01011000};
  1079     05C4  3040               	movlw	Visualizza@F1428& (0+255)
  1080     05C5  0084               	movwf	4
  1081     05C6  3033               	movlw	low Visualizza@lettera
  1082     05C7  00AF               	movwf	??_Visualizza
  1083     05C8  300A               	movlw	10
  1084     05C9  00B0               	movwf	??_Visualizza+1
  1085     05CA                     u670:
  1086     05CA  1383               	bcf	3,7	;select IRP bank0
  1087     05CB  0800               	movf	0,w
  1088     05CC  00B1               	movwf	??_Visualizza+2
  1089     05CD  0A04               	incf	4,w
  1090     05CE  00B2               	movwf	??_Visualizza+3
  1091     05CF  082F               	movf	??_Visualizza,w
  1092     05D0  0084               	movwf	4
  1093     05D1  0831               	movf	??_Visualizza+2,w
  1094     05D2  0080               	movwf	0
  1095     05D3  0A04               	incf	4,w
  1096     05D4  00AF               	movwf	??_Visualizza
  1097     05D5  0832               	movf	??_Visualizza+3,w
  1098     05D6  0084               	movwf	4
  1099     05D7  0BB0               	decfsz	??_Visualizza+1,f
  1100     05D8  2DCA               	goto	u670
  1101     05D9                     l1042:
  1102                           
  1103                           ;main.c: 97:     if(display == 1 )
  1104     05D9  032D               	decf	Visualizza@display,w
  1105     05DA  042E               	iorwf	Visualizza@display+1,w
  1106     05DB  1D03               	btfss	3,2
  1107     05DC  2DDE               	goto	u681
  1108     05DD  2DDF               	goto	u680
  1109     05DE                     u681:
  1110     05DE  2DE3               	goto	l1046
  1111     05DF                     u680:
  1112     05DF                     l1044:
  1113                           
  1114                           ;main.c: 98:     {;main.c: 99:         PORTC = lettera[0];
  1115     05DF  0833               	movf	Visualizza@lettera,w
  1116     05E0  0087               	movwf	7	;volatile
  1117                           
  1118                           ;main.c: 100:         PORTA = lettera[1];
  1119     05E1  0835               	movf	Visualizza@lettera+2,w
  1120     05E2  0085               	movwf	5	;volatile
  1121     05E3                     l1046:
  1122                           
  1123                           ;main.c: 103:     if(display == 0 )
  1124     05E3  082D               	movf	Visualizza@display,w
  1125     05E4  042E               	iorwf	Visualizza@display+1,w
  1126     05E5  1D03               	btfss	3,2
  1127     05E6  2DE8               	goto	u691
  1128     05E7  2DE9               	goto	u690
  1129     05E8                     u691:
  1130     05E8  2DED               	goto	l1050
  1131     05E9                     u690:
  1132     05E9                     l1048:
  1133                           
  1134                           ;main.c: 104:     {;main.c: 105:         PORTC = lettera[0];
  1135     05E9  0833               	movf	Visualizza@lettera,w
  1136     05EA  0087               	movwf	7	;volatile
  1137                           
  1138                           ;main.c: 106:         PORTA = lettera[3];
  1139     05EB  0839               	movf	Visualizza@lettera+6,w
  1140     05EC  0085               	movwf	5	;volatile
  1141     05ED                     l1050:
  1142                           
  1143                           ;main.c: 109:     if(display == 2 )
  1144     05ED  3002               	movlw	2
  1145     05EE  062D               	xorwf	Visualizza@display,w
  1146     05EF  042E               	iorwf	Visualizza@display+1,w
  1147     05F0  1D03               	btfss	3,2
  1148     05F1  2DF3               	goto	u701
  1149     05F2  2DF4               	goto	u700
  1150     05F3                     u701:
  1151     05F3  2DF8               	goto	l1054
  1152     05F4                     u700:
  1153     05F4                     l1052:
  1154                           
  1155                           ;main.c: 110:     {;main.c: 111:         PORTC =lettera[1];
  1156     05F4  0835               	movf	Visualizza@lettera+2,w
  1157     05F5  0087               	movwf	7	;volatile
  1158                           
  1159                           ;main.c: 112:         PORTA =lettera[4];
  1160     05F6  083B               	movf	Visualizza@lettera+8,w
  1161     05F7  0085               	movwf	5	;volatile
  1162     05F8                     l1054:
  1163                           
  1164                           ;main.c: 115:     if(display == 3 )
  1165     05F8  3003               	movlw	3
  1166     05F9  062D               	xorwf	Visualizza@display,w
  1167     05FA  042E               	iorwf	Visualizza@display+1,w
  1168     05FB  1D03               	btfss	3,2
  1169     05FC  2DFE               	goto	u711
  1170     05FD  2DFF               	goto	u710
  1171     05FE                     u711:
  1172     05FE  2E03               	goto	l1058
  1173     05FF                     u710:
  1174     05FF                     l1056:
  1175                           
  1176                           ;main.c: 116:     {;main.c: 117:         PORTC = lettera[2];
  1177     05FF  0837               	movf	Visualizza@lettera+4,w
  1178     0600  0087               	movwf	7	;volatile
  1179                           
  1180                           ;main.c: 118:         PORTA = lettera[3];
  1181     0601  0839               	movf	Visualizza@lettera+6,w
  1182     0602  0085               	movwf	5	;volatile
  1183     0603                     l1058:
  1184                           
  1185                           ;main.c: 121:     if(display == 4 )
  1186     0603  3004               	movlw	4
  1187     0604  062D               	xorwf	Visualizza@display,w
  1188     0605  042E               	iorwf	Visualizza@display+1,w
  1189     0606  1D03               	btfss	3,2
  1190     0607  2E09               	goto	u721
  1191     0608  2E0A               	goto	u720
  1192     0609                     u721:
  1193     0609  2E0E               	goto	l79
  1194     060A                     u720:
  1195     060A                     l1060:
  1196                           
  1197                           ;main.c: 122:     {;main.c: 123:         PORTC = 0b00111111;
  1198     060A  303F               	movlw	63
  1199     060B  0087               	movwf	7	;volatile
  1200     060C                     l1062:
  1201                           
  1202                           ;main.c: 124:         PORTA = lettera[0];
  1203     060C  0833               	movf	Visualizza@lettera,w
  1204     060D  0085               	movwf	5	;volatile
  1205     060E                     l79:
  1206     060E  0008               	return
  1207     060F                     __end_of_Visualizza:
  1208                           
  1209                           	psect	text2
  1210     04ED                     __ptext2:	
  1211 ;; *************** function _Irrigazione *****************
  1212 ;; Defined at:
  1213 ;;		line 73 in file "main.c"
  1214 ;; Parameters:    Size  Location     Type
  1215 ;;  power           2   13[BANK0 ] int 
  1216 ;;  direzione       2   15[BANK0 ] int 
  1217 ;;  velocita        2   17[BANK0 ] int 
  1218 ;;  irrigazione     2   19[BANK0 ] int 
  1219 ;; Auto vars:     Size  Location     Type
  1220 ;;		None
  1221 ;; Return value:  Size  Location     Type
  1222 ;;                  1    wreg      void 
  1223 ;; Registers used:
  1224 ;;		wreg, status,2, status,0
  1225 ;; Tracked objects:
  1226 ;;		On entry : 0/0
  1227 ;;		On exit  : 0/0
  1228 ;;		Unchanged: 0/0
  1229 ;; Data sizes:     COMMON   BANK0   BANK1   BANK3   BANK2
  1230 ;;      Params:         0       8       0       0       0
  1231 ;;      Locals:         0       0       0       0       0
  1232 ;;      Temps:          0       0       0       0       0
  1233 ;;      Totals:         0       8       0       0       0
  1234 ;;Total ram usage:        8 bytes
  1235 ;; Hardware stack levels used: 1
  1236 ;; Hardware stack levels required when called: 3
  1237 ;; This function calls:
  1238 ;;		Nothing
  1239 ;; This function is called by:
  1240 ;;		_main
  1241 ;; This function uses a non-reentrant model
  1242 ;;
  1243                           
  1244     04ED                     _Irrigazione:	
  1245                           ;psect for function _Irrigazione
  1246                           
  1247     04ED                     l1006:	
  1248                           ;incstack = 0
  1249                           ; Regs used in _Irrigazione: [wreg+status,2+status,0]
  1250                           
  1251                           
  1252                           ;main.c: 73: void Irrigazione(int power, int direzione, int velocita, int irrigazione);m
      +                          ain.c: 74: {;main.c: 76:     if(power == 1) RD4 = 1;
  1253     04ED  1283               	bcf	3,5	;RP0=0, select bank0
  1254     04EE  1303               	bcf	3,6	;RP1=0, select bank0
  1255     04EF  032D               	decf	Irrigazione@power,w
  1256     04F0  042E               	iorwf	Irrigazione@power+1,w
  1257     04F1  1D03               	btfss	3,2
  1258     04F2  2CF4               	goto	u591
  1259     04F3  2CF5               	goto	u590
  1260     04F4                     u591:
  1261     04F4  2CF6               	goto	l1010
  1262     04F5                     u590:
  1263     04F5                     l1008:
  1264     04F5  1608               	bsf	8,4	;volatile
  1265     04F6                     l1010:
  1266                           
  1267                           ;main.c: 77:     if(power == 0) RD4 = 0;
  1268     04F6  082D               	movf	Irrigazione@power,w
  1269     04F7  042E               	iorwf	Irrigazione@power+1,w
  1270     04F8  1D03               	btfss	3,2
  1271     04F9  2CFB               	goto	u601
  1272     04FA  2CFC               	goto	u600
  1273     04FB                     u601:
  1274     04FB  2CFD               	goto	l1014
  1275     04FC                     u600:
  1276     04FC                     l1012:
  1277     04FC  1208               	bcf	8,4	;volatile
  1278     04FD                     l1014:
  1279                           
  1280                           ;main.c: 80:     if(direzione == 1) RD2 = 1;
  1281     04FD  032F               	decf	Irrigazione@direzione,w
  1282     04FE  0430               	iorwf	Irrigazione@direzione+1,w
  1283     04FF  1D03               	btfss	3,2
  1284     0500  2D02               	goto	u611
  1285     0501  2D03               	goto	u610
  1286     0502                     u611:
  1287     0502  2D04               	goto	l1018
  1288     0503                     u610:
  1289     0503                     l1016:
  1290     0503  1508               	bsf	8,2	;volatile
  1291     0504                     l1018:
  1292                           
  1293                           ;main.c: 81:     if(direzione == 0) RD2 = 0;
  1294     0504  082F               	movf	Irrigazione@direzione,w
  1295     0505  0430               	iorwf	Irrigazione@direzione+1,w
  1296     0506  1D03               	btfss	3,2
  1297     0507  2D09               	goto	u621
  1298     0508  2D0A               	goto	u620
  1299     0509                     u621:
  1300     0509  2D0B               	goto	l1022
  1301     050A                     u620:
  1302     050A                     l1020:
  1303     050A  1108               	bcf	8,2	;volatile
  1304     050B                     l1022:
  1305                           
  1306                           ;main.c: 84:     if(velocita == 0) RD3 = 0;
  1307     050B  0831               	movf	Irrigazione@velocita,w
  1308     050C  0432               	iorwf	Irrigazione@velocita+1,w
  1309     050D  1D03               	btfss	3,2
  1310     050E  2D10               	goto	u631
  1311     050F  2D11               	goto	u630
  1312     0510                     u631:
  1313     0510  2D12               	goto	l1026
  1314     0511                     u630:
  1315     0511                     l1024:
  1316     0511  1188               	bcf	8,3	;volatile
  1317     0512                     l1026:
  1318                           
  1319                           ;main.c: 85:     if(velocita == 1) RD3 = 1;
  1320     0512  0331               	decf	Irrigazione@velocita,w
  1321     0513  0432               	iorwf	Irrigazione@velocita+1,w
  1322     0514  1D03               	btfss	3,2
  1323     0515  2D17               	goto	u641
  1324     0516  2D18               	goto	u640
  1325     0517                     u641:
  1326     0517  2D19               	goto	l1030
  1327     0518                     u640:
  1328     0518                     l1028:
  1329     0518  1588               	bsf	8,3	;volatile
  1330     0519                     l1030:
  1331                           
  1332                           ;main.c: 88:     if(irrigazione == 1 ) RD7 = 1;
  1333     0519  0333               	decf	Irrigazione@irrigazione,w
  1334     051A  0434               	iorwf	Irrigazione@irrigazione+1,w
  1335     051B  1D03               	btfss	3,2
  1336     051C  2D1E               	goto	u651
  1337     051D  2D1F               	goto	u650
  1338     051E                     u651:
  1339     051E  2D20               	goto	l1034
  1340     051F                     u650:
  1341     051F                     l1032:
  1342     051F  1788               	bsf	8,7	;volatile
  1343     0520                     l1034:
  1344                           
  1345                           ;main.c: 89:     if(irrigazione == 0) RD7 = 0;
  1346     0520  0833               	movf	Irrigazione@irrigazione,w
  1347     0521  0434               	iorwf	Irrigazione@irrigazione+1,w
  1348     0522  1D03               	btfss	3,2
  1349     0523  2D25               	goto	u661
  1350     0524  2D26               	goto	u660
  1351     0525                     u661:
  1352     0525  2D27               	goto	l69
  1353     0526                     u660:
  1354     0526                     l1036:
  1355     0526  1388               	bcf	8,7	;volatile
  1356     0527                     l69:
  1357     0527  0008               	return
  1358     0528                     __end_of_Irrigazione:
  1359                           
  1360                           	psect	text3
  1361     04D4                     __ptext3:	
  1362 ;; *************** function _ISR *****************
  1363 ;; Defined at:
  1364 ;;		line 273 in file "main.c"
  1365 ;; Parameters:    Size  Location     Type
  1366 ;;		None
  1367 ;; Auto vars:     Size  Location     Type
  1368 ;;		None
  1369 ;; Return value:  Size  Location     Type
  1370 ;;                  1    wreg      void 
  1371 ;; Registers used:
  1372 ;;		wreg, fsr0l, fsr0h, status,2, status,0, pclath, cstack
  1373 ;; Tracked objects:
  1374 ;;		On entry : 0/0
  1375 ;;		On exit  : 0/0
  1376 ;;		Unchanged: 0/0
  1377 ;; Data sizes:     COMMON   BANK0   BANK1   BANK3   BANK2
  1378 ;;      Params:         0       0       0       0       0
  1379 ;;      Locals:         0       0       0       0       0
  1380 ;;      Temps:          0       3       0       0       0
  1381 ;;      Totals:         0       3       0       0       0
  1382 ;;Total ram usage:        3 bytes
  1383 ;; Hardware stack levels used: 1
  1384 ;; Hardware stack levels required when called: 2
  1385 ;; This function calls:
  1386 ;;		_Stop
  1387 ;; This function is called by:
  1388 ;;		Interrupt level 1
  1389 ;; This function uses a non-reentrant model
  1390 ;;
  1391                           
  1392     04D4                     _ISR:	
  1393                           ;psect for function _ISR
  1394                           
  1395     04D4                     i1l1186:
  1396                           
  1397                           ;main.c: 275:     if (INTCONbits.INTE && INTCONbits.INTF)
  1398     04D4  1E0B               	btfss	11,4	;volatile
  1399     04D5  2CD7               	goto	u87_21
  1400     04D6  2CD8               	goto	u87_20
  1401     04D7                     u87_21:
  1402     04D7  2CE2               	goto	i1l128
  1403     04D8                     u87_20:
  1404     04D8                     i1l1188:
  1405     04D8  1C8B               	btfss	11,1	;volatile
  1406     04D9  2CDB               	goto	u88_21
  1407     04DA  2CDC               	goto	u88_20
  1408     04DB                     u88_21:
  1409     04DB  2CE2               	goto	i1l128
  1410     04DC                     u88_20:
  1411     04DC                     i1l1190:
  1412                           
  1413                           ;main.c: 276:     {;main.c: 277:         INTCONbits.INTF = 0;
  1414     04DC  108B               	bcf	11,1	;volatile
  1415     04DD                     i1l1192:
  1416                           
  1417                           ;main.c: 278:         Stop();
  1418     04DD  120A  118A  260F  120A  118A  	fcall	_Stop
  1419     04E2                     i1l128:
  1420     04E2  1283               	bcf	3,5	;RP0=0, select bank0
  1421     04E3  1303               	bcf	3,6	;RP1=0, select bank0
  1422     04E4  082C               	movf	??_ISR+2,w
  1423     04E5  008A               	movwf	10
  1424     04E6  082B               	movf	??_ISR+1,w
  1425     04E7  0084               	movwf	4
  1426     04E8  0E2A               	swapf	??_ISR,w
  1427     04E9  0083               	movwf	3
  1428     04EA  0EFE               	swapf	btemp,f
  1429     04EB  0E7E               	swapf	btemp,w
  1430     04EC  0009               	retfie
  1431     04ED                     __end_of_ISR:
  1432                           
  1433                           	psect	intentry
  1434     0004                     __pintentry:	
  1435                           ;incstack = 0
  1436                           ; Regs used in _ISR: [wreg-fsr0h+status,2+status,0+pclath+cstack]
  1437                           
  1438     0004                     interrupt_function:
  1439     007E                     saved_w         set	btemp
  1440     0004  00FE               	movwf	btemp
  1441     0005  0E03               	swapf	3,w
  1442     0006  1283               	bcf	3,5	;RP0=0, select bank0
  1443     0007  1303               	bcf	3,6	;RP1=0, select bank0
  1444     0008  00AA               	movwf	??_ISR
  1445     0009  0804               	movf	4,w
  1446     000A  00AB               	movwf	??_ISR+1
  1447     000B  080A               	movf	10,w
  1448     000C  00AC               	movwf	??_ISR+2
  1449     000D  120A  118A  2CD4   	ljmp	_ISR
  1450                           
  1451                           	psect	text4
  1452     060F                     __ptext4:	
  1453 ;; *************** function _Stop *****************
  1454 ;; Defined at:
  1455 ;;		line 129 in file "main.c"
  1456 ;; Parameters:    Size  Location     Type
  1457 ;;		None
  1458 ;; Auto vars:     Size  Location     Type
  1459 ;;		None
  1460 ;; Return value:  Size  Location     Type
  1461 ;;                  1    wreg      void 
  1462 ;; Registers used:
  1463 ;;		wreg, fsr0l, fsr0h, status,2, status,0, pclath, cstack
  1464 ;; Tracked objects:
  1465 ;;		On entry : 0/0
  1466 ;;		On exit  : 0/0
  1467 ;;		Unchanged: 0/0
  1468 ;; Data sizes:     COMMON   BANK0   BANK1   BANK3   BANK2
  1469 ;;      Params:         0       0       0       0       0
  1470 ;;      Locals:         0       0       0       0       0
  1471 ;;      Temps:          3       0       0       0       0
  1472 ;;      Totals:         3       0       0       0       0
  1473 ;;Total ram usage:        3 bytes
  1474 ;; Hardware stack levels used: 1
  1475 ;; Hardware stack levels required when called: 1
  1476 ;; This function calls:
  1477 ;;		i1_Irrigazione
  1478 ;;		i1_Visualizza
  1479 ;; This function is called by:
  1480 ;;		_ISR
  1481 ;; This function uses a non-reentrant model
  1482 ;;
  1483                           
  1484     060F                     _Stop:	
  1485                           ;psect for function _Stop
  1486                           
  1487     060F                     i1l1064:	
  1488                           ;incstack = 0
  1489                           ; Regs used in _Stop: [wreg-fsr0h+status,2+status,0+pclath+cstack]
  1490                           
  1491                           
  1492                           ;main.c: 131:     Irrigazione(0, 0, 0, 0);
  1493     060F  3000               	movlw	0
  1494     0610  00F1               	movwf	i1Irrigazione@power
  1495     0611  00F2               	movwf	i1Irrigazione@power+1
  1496     0612  3000               	movlw	0
  1497     0613  00F3               	movwf	i1Irrigazione@direzione
  1498     0614  00F4               	movwf	i1Irrigazione@direzione+1
  1499     0615  3000               	movlw	0
  1500     0616  00F5               	movwf	i1Irrigazione@velocita
  1501     0617  00F6               	movwf	i1Irrigazione@velocita+1
  1502     0618  3000               	movlw	0
  1503     0619  00F7               	movwf	i1Irrigazione@irrigazione
  1504     061A  00F8               	movwf	i1Irrigazione@irrigazione+1
  1505     061B  120A  118A  2528  120A  118A  	fcall	i1_Irrigazione
  1506     0620                     i1l1066:
  1507                           
  1508                           ;main.c: 132:     Visualizza(1);
  1509     0620  3001               	movlw	1
  1510     0621  00F1               	movwf	i1Visualizza@display
  1511     0622  3000               	movlw	0
  1512     0623  00F2               	movwf	i1Visualizza@display+1
  1513     0624  120A  118A  2571  120A  118A  	fcall	i1_Visualizza
  1514     0629                     i1l1068:
  1515                           
  1516                           ;main.c: 133:     _delay((unsigned long)((5000)*(4000000/4000.0)));
  1517     0629  301A               	movlw	26
  1518     062A  00FB               	movwf	??_Stop+2
  1519     062B  305E               	movlw	94
  1520     062C  00FA               	movwf	??_Stop+1
  1521     062D  306E               	movlw	110
  1522     062E  00F9               	movwf	??_Stop
  1523     062F                     u90_27:
  1524     062F  0BF9               	decfsz	??_Stop,f
  1525     0630  2E2F               	goto	u90_27
  1526     0631  0BFA               	decfsz	??_Stop+1,f
  1527     0632  2E2F               	goto	u90_27
  1528     0633  0BFB               	decfsz	??_Stop+2,f
  1529     0634  2E2F               	goto	u90_27
  1530     0635  0000               	nop
  1531     0636                     i1l1070:
  1532                           
  1533                           ;main.c: 134:     if (RB0 == 0)
  1534     0636  1283               	bcf	3,5	;RP0=0, select bank0
  1535     0637  1303               	bcf	3,6	;RP1=0, select bank0
  1536     0638  1806               	btfsc	6,0	;volatile
  1537     0639  2E3B               	goto	u73_21
  1538     063A  2E3C               	goto	u73_20
  1539     063B                     u73_21:
  1540     063B  2E67               	goto	i1l1080
  1541     063C                     u73_20:
  1542     063C  2E50               	goto	i1l1076
  1543     063D                     i1l1074:
  1544                           
  1545                           ;main.c: 137:         {;main.c: 138:             Irrigazione(1, 0, 1, 0);
  1546     063D  3001               	movlw	1
  1547     063E  00F1               	movwf	i1Irrigazione@power
  1548     063F  3000               	movlw	0
  1549     0640  00F2               	movwf	i1Irrigazione@power+1
  1550     0641  3000               	movlw	0
  1551     0642  00F3               	movwf	i1Irrigazione@direzione
  1552     0643  00F4               	movwf	i1Irrigazione@direzione+1
  1553     0644  3001               	movlw	1
  1554     0645  00F5               	movwf	i1Irrigazione@velocita
  1555     0646  3000               	movlw	0
  1556     0647  00F6               	movwf	i1Irrigazione@velocita+1
  1557     0648  3000               	movlw	0
  1558     0649  00F7               	movwf	i1Irrigazione@irrigazione
  1559     064A  00F8               	movwf	i1Irrigazione@irrigazione+1
  1560     064B  120A  118A  2528  120A  118A  	fcall	i1_Irrigazione
  1561     0650                     i1l1076:
  1562                           
  1563                           ;main.c: 136:         while(RB3==0)
  1564     0650  1283               	bcf	3,5	;RP0=0, select bank0
  1565     0651  1303               	bcf	3,6	;RP1=0, select bank0
  1566     0652  1D86               	btfss	6,3	;volatile
  1567     0653  2E55               	goto	u74_21
  1568     0654  2E56               	goto	u74_20
  1569     0655                     u74_21:
  1570     0655  2E3D               	goto	i1l1074
  1571     0656                     u74_20:
  1572     0656                     i1l1078:
  1573                           
  1574                           ;main.c: 140:         Irrigazione(0, 0, 0, 0);
  1575     0656  3000               	movlw	0
  1576     0657  00F1               	movwf	i1Irrigazione@power
  1577     0658  00F2               	movwf	i1Irrigazione@power+1
  1578     0659  3000               	movlw	0
  1579     065A  00F3               	movwf	i1Irrigazione@direzione
  1580     065B  00F4               	movwf	i1Irrigazione@direzione+1
  1581     065C  3000               	movlw	0
  1582     065D  00F5               	movwf	i1Irrigazione@velocita
  1583     065E  00F6               	movwf	i1Irrigazione@velocita+1
  1584     065F  3000               	movlw	0
  1585     0660  00F7               	movwf	i1Irrigazione@irrigazione
  1586     0661  00F8               	movwf	i1Irrigazione@irrigazione+1
  1587     0662  120A  118A  2528  120A  118A  	fcall	i1_Irrigazione
  1588     0667                     i1l1080:
  1589                           
  1590                           ;main.c: 141:         stato = 0;
  1591     0667  01FC               	clrf	_stato
  1592     0668  01FD               	clrf	_stato+1
  1593     0669                     i1l87:	
  1594                           ;main.c: 142:     }
  1595                           
  1596     0669  0008               	return
  1597     066A                     __end_of_Stop:
  1598                           
  1599                           	psect	text5
  1600     0571                     __ptext5:	
  1601 ;; *************** function i1_Visualizza *****************
  1602 ;; Defined at:
  1603 ;;		line 92 in file "main.c"
  1604 ;; Parameters:    Size  Location     Type
  1605 ;;  display         2    0[COMMON] int 
  1606 ;; Auto vars:     Size  Location     Type
  1607 ;;  lettera        10    0[BANK0 ] unsigned int [5]
  1608 ;; Return value:  Size  Location     Type
  1609 ;;                  1    wreg      void 
  1610 ;; Registers used:
  1611 ;;		wreg, fsr0l, fsr0h, status,2, status,0
  1612 ;; Tracked objects:
  1613 ;;		On entry : 0/0
  1614 ;;		On exit  : 0/0
  1615 ;;		Unchanged: 0/0
  1616 ;; Data sizes:     COMMON   BANK0   BANK1   BANK3   BANK2
  1617 ;;      Params:         2       0       0       0       0
  1618 ;;      Locals:         0      10       0       0       0
  1619 ;;      Temps:          4       0       0       0       0
  1620 ;;      Totals:         6      10       0       0       0
  1621 ;;Total ram usage:       16 bytes
  1622 ;; Hardware stack levels used: 1
  1623 ;; This function calls:
  1624 ;;		Nothing
  1625 ;; This function is called by:
  1626 ;;		_Stop
  1627 ;; This function uses a non-reentrant model
  1628 ;;
  1629                           
  1630     0571                     i1_Visualizza:	
  1631                           ;psect for function i1_Visualizza
  1632                           
  1633     0571                     i1l980:	
  1634                           ;incstack = 0
  1635                           ; Regs used in i1_Visualizza: [wreg-fsr0h+status,2+status,0]
  1636                           
  1637                           
  1638                           ;main.c: 92: void Visualizza (int display);main.c: 93: {;main.c: 94:     PORTC =0b111111
      +                          11;
  1639     0571  30FF               	movlw	255
  1640     0572  1283               	bcf	3,5	;RP0=0, select bank0
  1641     0573  1303               	bcf	3,6	;RP1=0, select bank0
  1642     0574  0087               	movwf	7	;volatile
  1643     0575                     i1l982:
  1644                           
  1645                           ;main.c: 95:     unsigned int lettera[5] = {0b00111111, 0b01110001, 0b01111001, 0b010101
      +                          00, 0b01011000};
  1646     0575  3040               	movlw	Visualizza@F1428& (0+255)
  1647     0576  0084               	movwf	4
  1648     0577  3020               	movlw	low i1Visualizza@lettera
  1649     0578  00F3               	movwf	??i1_Visualizza
  1650     0579  300A               	movlw	10
  1651     057A  00F4               	movwf	??i1_Visualizza+1
  1652     057B                     u53_20:
  1653     057B  1383               	bcf	3,7	;select IRP bank0
  1654     057C  0800               	movf	0,w
  1655     057D  00F5               	movwf	??i1_Visualizza+2
  1656     057E  0A04               	incf	4,w
  1657     057F  00F6               	movwf	??i1_Visualizza+3
  1658     0580  0873               	movf	??i1_Visualizza,w
  1659     0581  0084               	movwf	4
  1660     0582  0875               	movf	??i1_Visualizza+2,w
  1661     0583  0080               	movwf	0
  1662     0584  0A04               	incf	4,w
  1663     0585  00F3               	movwf	??i1_Visualizza
  1664     0586  0876               	movf	??i1_Visualizza+3,w
  1665     0587  0084               	movwf	4
  1666     0588  0BF4               	decfsz	??i1_Visualizza+1,f
  1667     0589  2D7B               	goto	u53_20
  1668     058A                     i1l984:
  1669                           
  1670                           ;main.c: 97:     if(display == 1 )
  1671     058A  0371               	decf	i1Visualizza@display,w
  1672     058B  0472               	iorwf	i1Visualizza@display+1,w
  1673     058C  1D03               	btfss	3,2
  1674     058D  2D8F               	goto	u54_21
  1675     058E  2D90               	goto	u54_20
  1676     058F                     u54_21:
  1677     058F  2D94               	goto	i1l988
  1678     0590                     u54_20:
  1679     0590                     i1l986:
  1680                           
  1681                           ;main.c: 98:     {;main.c: 99:         PORTC = lettera[0];
  1682     0590  0820               	movf	i1Visualizza@lettera,w
  1683     0591  0087               	movwf	7	;volatile
  1684                           
  1685                           ;main.c: 100:         PORTA = lettera[1];
  1686     0592  0822               	movf	i1Visualizza@lettera+2,w
  1687     0593  0085               	movwf	5	;volatile
  1688     0594                     i1l988:
  1689                           
  1690                           ;main.c: 103:     if(display == 0 )
  1691     0594  0871               	movf	i1Visualizza@display,w
  1692     0595  0472               	iorwf	i1Visualizza@display+1,w
  1693     0596  1D03               	btfss	3,2
  1694     0597  2D99               	goto	u55_21
  1695     0598  2D9A               	goto	u55_20
  1696     0599                     u55_21:
  1697     0599  2D9E               	goto	i1l992
  1698     059A                     u55_20:
  1699     059A                     i1l990:
  1700                           
  1701                           ;main.c: 104:     {;main.c: 105:         PORTC = lettera[0];
  1702     059A  0820               	movf	i1Visualizza@lettera,w
  1703     059B  0087               	movwf	7	;volatile
  1704                           
  1705                           ;main.c: 106:         PORTA = lettera[3];
  1706     059C  0826               	movf	i1Visualizza@lettera+6,w
  1707     059D  0085               	movwf	5	;volatile
  1708     059E                     i1l992:
  1709                           
  1710                           ;main.c: 109:     if(display == 2 )
  1711     059E  3002               	movlw	2
  1712     059F  0671               	xorwf	i1Visualizza@display,w
  1713     05A0  0472               	iorwf	i1Visualizza@display+1,w
  1714     05A1  1D03               	btfss	3,2
  1715     05A2  2DA4               	goto	u56_21
  1716     05A3  2DA5               	goto	u56_20
  1717     05A4                     u56_21:
  1718     05A4  2DA9               	goto	i1l996
  1719     05A5                     u56_20:
  1720     05A5                     i1l994:
  1721                           
  1722                           ;main.c: 110:     {;main.c: 111:         PORTC =lettera[1];
  1723     05A5  0822               	movf	i1Visualizza@lettera+2,w
  1724     05A6  0087               	movwf	7	;volatile
  1725                           
  1726                           ;main.c: 112:         PORTA =lettera[4];
  1727     05A7  0828               	movf	i1Visualizza@lettera+8,w
  1728     05A8  0085               	movwf	5	;volatile
  1729     05A9                     i1l996:
  1730                           
  1731                           ;main.c: 115:     if(display == 3 )
  1732     05A9  3003               	movlw	3
  1733     05AA  0671               	xorwf	i1Visualizza@display,w
  1734     05AB  0472               	iorwf	i1Visualizza@display+1,w
  1735     05AC  1D03               	btfss	3,2
  1736     05AD  2DAF               	goto	u57_21
  1737     05AE  2DB0               	goto	u57_20
  1738     05AF                     u57_21:
  1739     05AF  2DB4               	goto	i1l1000
  1740     05B0                     u57_20:
  1741     05B0                     i1l998:
  1742                           
  1743                           ;main.c: 116:     {;main.c: 117:         PORTC = lettera[2];
  1744     05B0  0824               	movf	i1Visualizza@lettera+4,w
  1745     05B1  0087               	movwf	7	;volatile
  1746                           
  1747                           ;main.c: 118:         PORTA = lettera[3];
  1748     05B2  0826               	movf	i1Visualizza@lettera+6,w
  1749     05B3  0085               	movwf	5	;volatile
  1750     05B4                     i1l1000:
  1751                           
  1752                           ;main.c: 121:     if(display == 4 )
  1753     05B4  3004               	movlw	4
  1754     05B5  0671               	xorwf	i1Visualizza@display,w
  1755     05B6  0472               	iorwf	i1Visualizza@display+1,w
  1756     05B7  1D03               	btfss	3,2
  1757     05B8  2DBA               	goto	u58_21
  1758     05B9  2DBB               	goto	u58_20
  1759     05BA                     u58_21:
  1760     05BA  2DBF               	goto	i1l79
  1761     05BB                     u58_20:
  1762     05BB                     i1l1002:
  1763                           
  1764                           ;main.c: 122:     {;main.c: 123:         PORTC = 0b00111111;
  1765     05BB  303F               	movlw	63
  1766     05BC  0087               	movwf	7	;volatile
  1767     05BD                     i1l1004:
  1768                           
  1769                           ;main.c: 124:         PORTA = lettera[0];
  1770     05BD  0820               	movf	i1Visualizza@lettera,w
  1771     05BE  0085               	movwf	5	;volatile
  1772     05BF                     i1l79:
  1773     05BF  0008               	return
  1774     05C0                     __end_ofi1_Visualizza:
  1775                           
  1776                           	psect	text6
  1777     0528                     __ptext6:	
  1778 ;; *************** function i1_Irrigazione *****************
  1779 ;; Defined at:
  1780 ;;		line 73 in file "main.c"
  1781 ;; Parameters:    Size  Location     Type
  1782 ;;  power           2    0[COMMON] int 
  1783 ;;  direzione       2    2[COMMON] int 
  1784 ;;  velocita        2    4[COMMON] int 
  1785 ;;  irrigazione     2    6[COMMON] int 
  1786 ;; Auto vars:     Size  Location     Type
  1787 ;;		None
  1788 ;; Return value:  Size  Location     Type
  1789 ;;                  1    wreg      void 
  1790 ;; Registers used:
  1791 ;;		wreg, status,2, status,0
  1792 ;; Tracked objects:
  1793 ;;		On entry : 0/0
  1794 ;;		On exit  : 0/0
  1795 ;;		Unchanged: 0/0
  1796 ;; Data sizes:     COMMON   BANK0   BANK1   BANK3   BANK2
  1797 ;;      Params:         8       0       0       0       0
  1798 ;;      Locals:         0       0       0       0       0
  1799 ;;      Temps:          0       0       0       0       0
  1800 ;;      Totals:         8       0       0       0       0
  1801 ;;Total ram usage:        8 bytes
  1802 ;; Hardware stack levels used: 1
  1803 ;; This function calls:
  1804 ;;		Nothing
  1805 ;; This function is called by:
  1806 ;;		_Stop
  1807 ;; This function uses a non-reentrant model
  1808 ;;
  1809                           
  1810     0528                     i1_Irrigazione:	
  1811                           ;psect for function i1_Irrigazione
  1812                           
  1813     0528                     i1l948:	
  1814                           ;incstack = 0
  1815                           ; Regs used in i1_Irrigazione: [wreg+status,2+status,0]
  1816                           
  1817                           
  1818                           ;main.c: 73: void Irrigazione(int power, int direzione, int velocita, int irrigazione);m
      +                          ain.c: 74: {;main.c: 76:     if(power == 1) RD4 = 1;
  1819     0528  0371               	decf	i1Irrigazione@power,w
  1820     0529  0472               	iorwf	i1Irrigazione@power+1,w
  1821     052A  1D03               	btfss	3,2
  1822     052B  2D2D               	goto	u45_21
  1823     052C  2D2E               	goto	u45_20
  1824     052D                     u45_21:
  1825     052D  2D31               	goto	i1l952
  1826     052E                     u45_20:
  1827     052E                     i1l950:
  1828     052E  1283               	bcf	3,5	;RP0=0, select bank0
  1829     052F  1303               	bcf	3,6	;RP1=0, select bank0
  1830     0530  1608               	bsf	8,4	;volatile
  1831     0531                     i1l952:
  1832                           
  1833                           ;main.c: 77:     if(power == 0) RD4 = 0;
  1834     0531  0871               	movf	i1Irrigazione@power,w
  1835     0532  0472               	iorwf	i1Irrigazione@power+1,w
  1836     0533  1D03               	btfss	3,2
  1837     0534  2D36               	goto	u46_21
  1838     0535  2D37               	goto	u46_20
  1839     0536                     u46_21:
  1840     0536  2D3A               	goto	i1l956
  1841     0537                     u46_20:
  1842     0537                     i1l954:
  1843     0537  1283               	bcf	3,5	;RP0=0, select bank0
  1844     0538  1303               	bcf	3,6	;RP1=0, select bank0
  1845     0539  1208               	bcf	8,4	;volatile
  1846     053A                     i1l956:
  1847                           
  1848                           ;main.c: 80:     if(direzione == 1) RD2 = 1;
  1849     053A  0373               	decf	i1Irrigazione@direzione,w
  1850     053B  0474               	iorwf	i1Irrigazione@direzione+1,w
  1851     053C  1D03               	btfss	3,2
  1852     053D  2D3F               	goto	u47_21
  1853     053E  2D40               	goto	u47_20
  1854     053F                     u47_21:
  1855     053F  2D43               	goto	i1l960
  1856     0540                     u47_20:
  1857     0540                     i1l958:
  1858     0540  1283               	bcf	3,5	;RP0=0, select bank0
  1859     0541  1303               	bcf	3,6	;RP1=0, select bank0
  1860     0542  1508               	bsf	8,2	;volatile
  1861     0543                     i1l960:
  1862                           
  1863                           ;main.c: 81:     if(direzione == 0) RD2 = 0;
  1864     0543  0873               	movf	i1Irrigazione@direzione,w
  1865     0544  0474               	iorwf	i1Irrigazione@direzione+1,w
  1866     0545  1D03               	btfss	3,2
  1867     0546  2D48               	goto	u48_21
  1868     0547  2D49               	goto	u48_20
  1869     0548                     u48_21:
  1870     0548  2D4C               	goto	i1l964
  1871     0549                     u48_20:
  1872     0549                     i1l962:
  1873     0549  1283               	bcf	3,5	;RP0=0, select bank0
  1874     054A  1303               	bcf	3,6	;RP1=0, select bank0
  1875     054B  1108               	bcf	8,2	;volatile
  1876     054C                     i1l964:
  1877                           
  1878                           ;main.c: 84:     if(velocita == 0) RD3 = 0;
  1879     054C  0875               	movf	i1Irrigazione@velocita,w
  1880     054D  0476               	iorwf	i1Irrigazione@velocita+1,w
  1881     054E  1D03               	btfss	3,2
  1882     054F  2D51               	goto	u49_21
  1883     0550  2D52               	goto	u49_20
  1884     0551                     u49_21:
  1885     0551  2D55               	goto	i1l968
  1886     0552                     u49_20:
  1887     0552                     i1l966:
  1888     0552  1283               	bcf	3,5	;RP0=0, select bank0
  1889     0553  1303               	bcf	3,6	;RP1=0, select bank0
  1890     0554  1188               	bcf	8,3	;volatile
  1891     0555                     i1l968:
  1892                           
  1893                           ;main.c: 85:     if(velocita == 1) RD3 = 1;
  1894     0555  0375               	decf	i1Irrigazione@velocita,w
  1895     0556  0476               	iorwf	i1Irrigazione@velocita+1,w
  1896     0557  1D03               	btfss	3,2
  1897     0558  2D5A               	goto	u50_21
  1898     0559  2D5B               	goto	u50_20
  1899     055A                     u50_21:
  1900     055A  2D5E               	goto	i1l972
  1901     055B                     u50_20:
  1902     055B                     i1l970:
  1903     055B  1283               	bcf	3,5	;RP0=0, select bank0
  1904     055C  1303               	bcf	3,6	;RP1=0, select bank0
  1905     055D  1588               	bsf	8,3	;volatile
  1906     055E                     i1l972:
  1907                           
  1908                           ;main.c: 88:     if(irrigazione == 1 ) RD7 = 1;
  1909     055E  0377               	decf	i1Irrigazione@irrigazione,w
  1910     055F  0478               	iorwf	i1Irrigazione@irrigazione+1,w
  1911     0560  1D03               	btfss	3,2
  1912     0561  2D63               	goto	u51_21
  1913     0562  2D64               	goto	u51_20
  1914     0563                     u51_21:
  1915     0563  2D67               	goto	i1l976
  1916     0564                     u51_20:
  1917     0564                     i1l974:
  1918     0564  1283               	bcf	3,5	;RP0=0, select bank0
  1919     0565  1303               	bcf	3,6	;RP1=0, select bank0
  1920     0566  1788               	bsf	8,7	;volatile
  1921     0567                     i1l976:
  1922                           
  1923                           ;main.c: 89:     if(irrigazione == 0) RD7 = 0;
  1924     0567  0877               	movf	i1Irrigazione@irrigazione,w
  1925     0568  0478               	iorwf	i1Irrigazione@irrigazione+1,w
  1926     0569  1D03               	btfss	3,2
  1927     056A  2D6C               	goto	u52_21
  1928     056B  2D6D               	goto	u52_20
  1929     056C                     u52_21:
  1930     056C  2D70               	goto	i1l69
  1931     056D                     u52_20:
  1932     056D                     i1l978:
  1933     056D  1283               	bcf	3,5	;RP0=0, select bank0
  1934     056E  1303               	bcf	3,6	;RP1=0, select bank0
  1935     056F  1388               	bcf	8,7	;volatile
  1936     0570                     i1l69:
  1937     0570  0008               	return
  1938     0571                     __end_ofi1_Irrigazione:
  1939     0002                     ___latbits      equ	2
  1940     007E                     btemp           set	126	;btemp
  1941     007E                     wtemp0          set	126
  1942                           
  1943                           	psect	config
  1944                           
  1945                           ;Config register CONFIG1 @ 0x2007
  1946                           ;	Oscillator Selection bits
  1947                           ;	FOSC = INTRC_NOCLKOUT, INTOSCIO oscillator: I/O function on RA6/OSC2/CLKOUT pin, I/O f
      +                          unction on RA7/OSC1/CLKIN
  1948                           ;	Watchdog Timer Enable bit
  1949                           ;	WDTE = OFF, WDT disabled and can be enabled by SWDTEN bit of the WDTCON register
  1950                           ;	Power-up Timer Enable bit
  1951                           ;	PWRTE = OFF, PWRT disabled
  1952                           ;	RE3/MCLR pin function select bit
  1953                           ;	MCLRE = OFF, RE3/MCLR pin function is digital input, MCLR internally tied to VDD
  1954                           ;	Code Protection bit
  1955                           ;	CP = OFF, Program memory code protection is disabled
  1956                           ;	Data Code Protection bit
  1957                           ;	CPD = OFF, Data memory code protection is disabled
  1958                           ;	Brown Out Reset Selection bits
  1959                           ;	BOREN = OFF, BOR disabled
  1960                           ;	Internal External Switchover bit
  1961                           ;	IESO = OFF, Internal/External Switchover mode is disabled
  1962                           ;	Fail-Safe Clock Monitor Enabled bit
  1963                           ;	FCMEN = OFF, Fail-Safe Clock Monitor is disabled
  1964                           ;	Low Voltage Programming Enable bit
  1965                           ;	LVP = OFF, RB3 pin has digital I/O, HV on MCLR must be used for programming
  1966                           ;	In-Circuit Debugger Mode bit
  1967                           ;	DEBUG = 0x1, unprogrammed default
  1968     2007                     	org	8199
  1969     2007  20D4               	dw	8404
  1970                           
  1971                           ;Config register CONFIG2 @ 0x2008
  1972                           ;	Brown-out Reset Selection bit
  1973                           ;	BOR4V = BOR40V, Brown-out Reset set to 4.0V
  1974                           ;	Flash Program Memory Self Write Enable bits
  1975                           ;	WRT = OFF, Write protection off
  1976     2008                     	org	8200
  1977     2008  3FFF               	dw	16383

Data Sizes:
    Strings     0
    Constant    0
    Data        10
    BSS         2
    Persistent  0
    Stack       0

Auto Spaces:
    Space          Size  Autos    Used
    COMMON           13     11      13
    BANK0            80     32      42
    BANK1            80      0       0
    BANK3            85      0       0
    BANK2            96      0       0

Pointer List with Targets:

    None.

Critical Paths under _main in COMMON

    None.

Critical Paths under _ISR in COMMON

    _ISR->_Stop
    _Stop->i1_Irrigazione

Critical Paths under _main in BANK0

    _main->_Visualizza

Critical Paths under _ISR in BANK0

    _Stop->i1_Visualizza

Critical Paths under _main in BANK1

    None.

Critical Paths under _ISR in BANK1

    None.

Critical Paths under _main in BANK3

    None.

Critical Paths under _ISR in BANK3

    None.

Critical Paths under _main in BANK2

    None.

Critical Paths under _ISR in BANK2

    None.

Call Graph Tables:

 ---------------------------------------------------------------------------------
 (Depth) Function   	        Calls       Base Space   Used Autos Params    Refs
 ---------------------------------------------------------------------------------
 (0) _main                                                 3     3      0     527
                                             29 BANK0      3     3      0
                        _Irrigazione
                         _Visualizza
 ---------------------------------------------------------------------------------
 (1) _Visualizza                                          16    14      2     319
                                             13 BANK0     16    14      2
 ---------------------------------------------------------------------------------
 (1) _Irrigazione                                          8     0      8     208
                                             13 BANK0      8     0      8
 ---------------------------------------------------------------------------------
 Estimated maximum stack depth 1
 ---------------------------------------------------------------------------------
 (Depth) Function   	        Calls       Base Space   Used Autos Params    Refs
 ---------------------------------------------------------------------------------
 (2) _ISR                                                  3     3      0     504
                                             10 BANK0      3     3      0
                               _Stop
 ---------------------------------------------------------------------------------
 (3) _Stop                                                 3     3      0     504
                                              8 COMMON     3     3      0
                      i1_Irrigazione
                       i1_Visualizza
 ---------------------------------------------------------------------------------
 (4) i1_Visualizza                                        16    14      2     316
                                              0 COMMON     6     4      2
                                              0 BANK0     10    10      0
 ---------------------------------------------------------------------------------
 (4) i1_Irrigazione                                        8     0      8     188
                                              0 COMMON     8     0      8
 ---------------------------------------------------------------------------------
 Estimated maximum stack depth 4
 ---------------------------------------------------------------------------------

 Call Graph Graphs:

 _main (ROOT)
   _Irrigazione
   _Visualizza

 _ISR (ROOT)
   _Stop
     i1_Irrigazione
     i1_Visualizza

Address spaces:
Name               Size   Autos  Total    Usage
BANK3               85      0       0      0.0%
BITBANK3            85      0       0      0.0%
BANK2               96      0       0      0.0%
BITBANK2            96      0       0      0.0%
BANK1               80      0       0      0.0%
BITBANK1            80      0       0      0.0%
BANK0               80     32      42     52.5%
BITBANK0            80      0       0      0.0%
COMMON              13     11      13    100.0%
BITCOMMON           13      0       0      0.0%
DATA                 0      0      55      0.0%
STACK                0      0       0      0.0%


Microchip Technology PIC Macro Assembler V3.00 build 20241204225717 
Symbol Table                                                                                   Tue May 06 22:50:46 2025

                       pc 0002                        l69 0527                        l79 060E  
                      l98 07E8                        l99 06EA                        fsr 0004  
                     l100 0708                       l103 0711                       l112 0778  
                     l114 0794                       l106 0733                       l108 073E  
                     l117 079E                       l109 075C                       l119 07BB  
                     _RB0 0030                       _RB1 0031                       _RB2 0032  
                     _RB3 0033                       _RB4 0034                       _RB5 0035  
                     _RD2 0042                       _RB6 0036                       _RD3 0043  
                     _RD4 0044                       _RD5 0045                       _RD6 0046  
                     _RD7 0047                       u600 04FC                       u601 04FB  
                     u610 0503                       u611 0502                       u620 050A  
                     u700 05F4                       _ISR 04D4                       u621 0509  
                     u701 05F3                       u630 0511                       u710 05FF  
                     u631 0510                       u711 05FE                       u640 0518  
                     u720 060A                       u800 0717                       u641 0517  
                     u721 0609                       u801 0716                       u650 051F  
                     u810 0739                       u651 051E                       u811 0738  
                     u660 0526                       u820 0744                       u661 0525  
                     u821 0743                       u590 04F5                       u670 05CA  
                     u830 0760                       u750 06A9                       u591 04F4  
                     u831 075F                       u751 06A8                       u680 05DF  
                     u840 077E                       u760 06AD                       u681 05DE  
                     u841 077D                       u761 06AC                       u690 05E9  
                     u850 079A                       u770 06DD                       u691 05E8  
                     u851 0799                       u771 06DC                       u860 07B6  
                     u780 06F0                       u861 07B5                       u781 06EF  
                     u790 070C                       u791 070B                       u897 07A9  
            i1_Visualizza 0571                       fsr0 0004                       indf 0000  
                    ?_ISR 0071                      l1010 04F6                      l1020 050A  
                    l1012 04FC                      l1100 067A                      l1030 0519  
                    l1022 050B                      l1014 04FD                      l1006 04ED  
                    l1110 0685                      l1102 067B                      l1032 051F  
                    l1024 0511                      l1016 0503                      l1008 04F5  
                    l1040 05C4                      l1120 06B6                      l1112 0690  
                    l1104 067D                      l1034 0520                      l1026 0512  
                    l1018 0504                      l1050 05ED                      l1042 05D9  
                    l1130 06E5                      l1122 06C9                      l1114 06A3  
                    l1106 0680                      l1036 0526                      l1028 0518  
                    l1060 060A                      l1052 05F4                      l1044 05DF  
                    l1132 06E9                      l1124 06CC                      l1116 06A9  
                    l1108 0681                      l1062 060C                      l1054 05F8  
                    l1046 05E3                      l1038 05C0                      l1150 0757  
                    l1142 0718                      l1134 06F0                      l1126 06D7  
                    l1118 06AD                      l1056 05FF                      l1048 05E9  
                    l1224 07C5                      l1152 0760                      l1144 072E  
                    l1136 0703                      l1128 06DD                      l1058 0603  
                    l1170 07B2                      l1154 0773                      l1146 0739  
                    l1138 070C                      l1090 0672                      l1172 07B6  
                    l1164 079B                      l1156 077E                      l1148 0744  
                    l1092 0673                      l1084 066A                      l1166 07A1  
                    l1158 078F                      l1094 0674                      l1086 066E  
                    l1168 07AF                      l1096 0677                      l1088 0671  
                    l1178 07C0                      l1098 0679                      i1l69 0570  
                    i1l79 05BF                      i1l87 0669          Irrigazione@power 002D  
                    _Stop 060F                      _main 066A                      btemp 007E  
                    start 0010           ??i1_Irrigazione 0079                     ??_ISR 002A  
                   ?_Stop 0071                     ?_main 0071                     _ANSEL 0188  
                   i1l128 04E2                     i1l950 052E                     i1l960 0543  
                   i1l952 0531                     i1l970 055B                     i1l962 0549  
                   i1l954 0537                     i1l972 055E                     i1l964 054C  
                   i1l956 053A                     i1l948 0528                     i1l980 0571  
                   i1l974 0564                     i1l966 0552                     i1l958 0540  
                   i1l990 059A                     i1l982 0575                     i1l976 0567  
                   i1l968 0555                     i1l992 059E                     i1l984 058A  
                   i1l978 056D                     i1l994 05A5                     i1l986 0590  
                   i1l996 05A9                     i1l988 0594                     i1l998 05B0  
                   u50_20 055B                     u50_21 055A                     u51_20 0564  
                   u51_21 0563                     _PORTA 0005                     _PORTB 0006  
                   _PORTC 0007                     _PORTD 0008                     u52_20 056D  
                   u52_21 056C                     u45_20 052E                     u53_20 057B  
                   u45_21 052D                     u46_20 0537                     u54_20 0590  
                   u46_21 0536                     u54_21 058F                     u47_20 0540  
                   u55_20 059A                     u47_21 053F                     u55_21 0599  
                   u48_20 0549                     u56_20 05A5                     u48_21 0548  
                   u56_21 05A4                     u49_20 0552                     u57_20 05B0  
                   u73_20 063C                     u49_21 0551                     u57_21 05AF  
                   u73_21 063B                     _TRISA 0085                     _TRISB 0086  
                   _TRISC 0087                     _TRISD 0088                     u58_20 05BB  
                   u74_20 0656                     u58_21 05BA                     u74_21 0655  
                   u90_27 062F                     u87_20 04D8                     u87_21 04D7  
                   u88_20 04DC                     u88_21 04DB                     _stato 007C  
                   pclath 000A                     status 0003                     wtemp0 007E  
         __initialization 07EC              __end_of_Stop 066A              __end_of_main 07EC  
           ??_Irrigazione 0035                    ??_Stop 0079                    ??_main 003D  
                  _ANSELH 0189                    i1l1000 05B4                    i1l1002 05BB  
                  i1l1004 05BD                    i1l1070 0636                    i1l1080 0667  
                  i1l1064 060F                    i1l1074 063D                    i1l1066 0620  
                  i1l1076 0650                    i1l1068 0629                    i1l1078 0656  
                  i1l1190 04DC                    i1l1192 04DD                    i1l1186 04D4  
                  i1l1188 04D8                    _INTCON 000B                    _OSCCON 008F  
     __end_of_Irrigazione 0528        i1Irrigazione@power 0071                    saved_w 007E  
 __end_of__initialization 07FC                _Visualizza 05C0            __pcstackCOMMON 0071  
            __pidataBANK0 04B7       i1Visualizza@display 0071       i1Visualizza@lettera 0020  
              __pmaintext 066A               _Irrigazione 04ED                __pintentry 0004  
     Irrigazione@velocita 0031               ?_Visualizza 002D     __end_ofi1_Irrigazione 0571  
                 __ptext1 05C0                   __ptext2 04ED                   __ptext3 04D4  
                 __ptext4 060F                   __ptext5 0571                   __ptext6 0528  
    end_of_initialization 07FC           Visualizza@F1428 0040             ?i1_Visualizza 0071  
     start_initialization 07EC               __end_of_ISR 04ED  i1Irrigazione@irrigazione 0077  
              init_fetch0 04C1              ?_Irrigazione 002D               __pdataBANK0 0040  
  i1Irrigazione@direzione 0073            ??i1_Visualizza 0073               __pbssCOMMON 007C  
               ___latbits 0002             __pcstackBANK0 0020              ??_Visualizza 002F  
    Irrigazione@direzione 002F        __end_of_Visualizza 060F         interrupt_function 0004  
    __end_ofi1_Visualizza 05C0     i1Irrigazione@velocita 0075             i1_Irrigazione 0528  
  Irrigazione@irrigazione 0033                _INTCONbits 000B                  init_ram0 04C5  
                intlevel1 0000         Visualizza@display 002D            ?i1_Irrigazione 0071  
       Visualizza@lettera 0033                _OPTION_REG 0081  
